
if_then_else_2seq_noopt.elf:     format de fichier elf32-littlearm


Déassemblage de la section .init:

00008158 <_init>:
    8158:	e92d4008 	push	{r3, lr}
    815c:	eb00029c 	bl	8bd4 <call_weak_fn>
    8160:	e8bd8008 	pop	{r3, pc}

Déassemblage de la section .text:

00008170 <backtrace_and_maps>:
    8170:	e3500001 	cmp	r0, #1
    8174:	d3a01000 	movle	r1, #0
    8178:	c2011001 	andgt	r1, r1, #1
    817c:	e3510000 	cmp	r1, #0
    8180:	012fff1e 	bxeq	lr
    8184:	e92d40f0 	push	{r4, r5, r6, r7, lr}
    8188:	e24ddc05 	sub	sp, sp, #1280	; 0x500
    818c:	e24dd004 	sub	sp, sp, #4
    8190:	e1a0000d 	mov	r0, sp
    8194:	e3a01040 	mov	r1, #64	; 0x40
    8198:	e1a04002 	mov	r4, r2
    819c:	eb0065ed 	bl	21958 <__backtrace>
    81a0:	e3500002 	cmp	r0, #2
    81a4:	e1a03000 	mov	r3, r0
    81a8:	da00004c 	ble	82e0 <backtrace_and_maps+0x170>
    81ac:	e1a00004 	mov	r0, r4
    81b0:	e59f1134 	ldr	r1, [pc, #308]	; 82ec <backtrace_and_maps+0x17c>
    81b4:	e3a0201d 	mov	r2, #29
    81b8:	e3a07004 	mov	r7, #4
    81bc:	ef000000 	svc	0x00000000
    81c0:	e3700a01 	cmn	r0, #4096	; 0x1000
    81c4:	9a000004 	bls	81dc <backtrace_and_maps+0x6c>
    81c8:	e59f2120 	ldr	r2, [pc, #288]	; 82f0 <backtrace_and_maps+0x180>
    81cc:	e2601000 	rsb	r1, r0, #0
    81d0:	e79f2002 	ldr	r2, [pc, r2]
    81d4:	eb000501 	bl	95e0 <__aeabi_read_tp>
    81d8:	e7801002 	str	r1, [r0, r2]
    81dc:	e28d0004 	add	r0, sp, #4
    81e0:	e2431001 	sub	r1, r3, #1
    81e4:	e1a02004 	mov	r2, r4
    81e8:	eb0065f6 	bl	219c8 <__backtrace_symbols_fd>
    81ec:	e3a07004 	mov	r7, #4
    81f0:	e1a00004 	mov	r0, r4
    81f4:	e59f10f8 	ldr	r1, [pc, #248]	; 82f4 <backtrace_and_maps+0x184>
    81f8:	e3a0201d 	mov	r2, #29
    81fc:	ef000000 	svc	0x00000000
    8200:	e3700a01 	cmn	r0, #4096	; 0x1000
    8204:	9a000004 	bls	821c <backtrace_and_maps+0xac>
    8208:	e59f30e8 	ldr	r3, [pc, #232]	; 82f8 <backtrace_and_maps+0x188>
    820c:	e2602000 	rsb	r2, r0, #0
    8210:	e79f3003 	ldr	r3, [pc, r3]
    8214:	eb0004f1 	bl	95e0 <__aeabi_read_tp>
    8218:	e7802003 	str	r2, [r0, r3]
    821c:	e59f00d8 	ldr	r0, [pc, #216]	; 82fc <backtrace_and_maps+0x18c>
    8220:	e3a01000 	mov	r1, #0
    8224:	e3a07005 	mov	r7, #5
    8228:	ef000000 	svc	0x00000000
    822c:	e3700a01 	cmn	r0, #4096	; 0x1000
    8230:	e1a05000 	mov	r5, r0
    8234:	9a000005 	bls	8250 <backtrace_and_maps+0xe0>
    8238:	e3e05000 	mvn	r5, #0
    823c:	e59f30bc 	ldr	r3, [pc, #188]	; 8300 <backtrace_and_maps+0x190>
    8240:	e2602000 	rsb	r2, r0, #0
    8244:	e79f3003 	ldr	r3, [pc, r3]
    8248:	eb0004e4 	bl	95e0 <__aeabi_read_tp>
    824c:	e7802003 	str	r2, [r0, r3]
    8250:	e59f60ac 	ldr	r6, [pc, #172]	; 8304 <backtrace_and_maps+0x194>
    8254:	e1a00005 	mov	r0, r5
    8258:	e28d1c01 	add	r1, sp, #256	; 0x100
    825c:	e3a02b01 	mov	r2, #1024	; 0x400
    8260:	e3a07003 	mov	r7, #3
    8264:	ef000000 	svc	0x00000000
    8268:	e3700a01 	cmn	r0, #4096	; 0x1000
    826c:	e1a03000 	mov	r3, r0
    8270:	9a000008 	bls	8298 <backtrace_and_maps+0x128>
    8274:	e59f208c 	ldr	r2, [pc, #140]	; 8308 <backtrace_and_maps+0x198>
    8278:	e2603000 	rsb	r3, r0, #0
    827c:	e79f2002 	ldr	r2, [pc, r2]
    8280:	eb0004d6 	bl	95e0 <__aeabi_read_tp>
    8284:	e7803002 	str	r3, [r0, r2]
    8288:	e1a00005 	mov	r0, r5
    828c:	e3a07006 	mov	r7, #6
    8290:	ef000000 	svc	0x00000000
    8294:	ea000011 	b	82e0 <backtrace_and_maps+0x170>
    8298:	e3500000 	cmp	r0, #0
    829c:	dafffff9 	ble	8288 <backtrace_and_maps+0x118>
    82a0:	e1a00004 	mov	r0, r4
    82a4:	e28d1c01 	add	r1, sp, #256	; 0x100
    82a8:	e1a02003 	mov	r2, r3
    82ac:	e3a07004 	mov	r7, #4
    82b0:	ef000000 	svc	0x00000000
    82b4:	e3700a01 	cmn	r0, #4096	; 0x1000
    82b8:	e1a01000 	mov	r1, r0
    82bc:	9a000004 	bls	82d4 <backtrace_and_maps+0x164>
    82c0:	e3e01000 	mvn	r1, #0
    82c4:	e2607000 	rsb	r7, r0, #0
    82c8:	e79f2006 	ldr	r2, [pc, r6]
    82cc:	eb0004c3 	bl	95e0 <__aeabi_read_tp>
    82d0:	e7807002 	str	r7, [r0, r2]
    82d4:	e1530001 	cmp	r3, r1
    82d8:	0affffdd 	beq	8254 <backtrace_and_maps+0xe4>
    82dc:	eaffffe9 	b	8288 <backtrace_and_maps+0x118>
    82e0:	e28ddc05 	add	sp, sp, #1280	; 0x500
    82e4:	e28dd004 	add	sp, sp, #4
    82e8:	e8bd80f0 	pop	{r4, r5, r6, r7, pc}
    82ec:	0006a0b0 	.word	0x0006a0b0
    82f0:	00080e68 	.word	0x00080e68
    82f4:	0006a0d0 	.word	0x0006a0d0
    82f8:	00080e28 	.word	0x00080e28
    82fc:	0006a0f0 	.word	0x0006a0f0
    8300:	00080df4 	.word	0x00080df4
    8304:	00080d70 	.word	0x00080d70
    8308:	00080dbc 	.word	0x00080dbc

0000830c <strip>:
    830c:	e92d4010 	push	{r4, lr}
    8310:	e3a04000 	mov	r4, #0
    8314:	e59f3098 	ldr	r3, [pc, #152]	; 83b4 <strip+0xa8>
    8318:	e2411001 	sub	r1, r1, #1
    831c:	e593c034 	ldr	ip, [r3, #52]	; 0x34
    8320:	e593e03c 	ldr	lr, [r3, #60]	; 0x3c
    8324:	e5f13001 	ldrb	r3, [r1, #1]!
    8328:	e3530000 	cmp	r3, #0
    832c:	e1a02083 	lsl	r2, r3, #1
    8330:	0a000012 	beq	8380 <strip+0x74>
    8334:	e19c20b2 	ldrh	r2, [ip, r2]
    8338:	e3120008 	tst	r2, #8
    833c:	1a000006 	bne	835c <strip+0x50>
    8340:	e353005f 	cmp	r3, #95	; 0x5f
    8344:	e243202c 	sub	r2, r3, #44	; 0x2c
    8348:	0a000003 	beq	835c <strip+0x50>
    834c:	e3520002 	cmp	r2, #2
    8350:	9a000001 	bls	835c <strip+0x50>
    8354:	e353003a 	cmp	r3, #58	; 0x3a
    8358:	1a000003 	bne	836c <strip+0x60>
    835c:	e79e3103 	ldr	r3, [lr, r3, lsl #2]
    8360:	e2800001 	add	r0, r0, #1
    8364:	e5403001 	strb	r3, [r0, #-1]
    8368:	eaffffed 	b	8324 <strip+0x18>
    836c:	e353002f 	cmp	r3, #47	; 0x2f
    8370:	1affffeb 	bne	8324 <strip+0x18>
    8374:	e2844001 	add	r4, r4, #1
    8378:	e3540003 	cmp	r4, #3
    837c:	1a000002 	bne	838c <strip+0x80>
    8380:	e0602004 	rsb	r2, r0, r4
    8384:	e3a0102f 	mov	r1, #47	; 0x2f
    8388:	ea000002 	b	8398 <strip+0x8c>
    838c:	e5c03000 	strb	r3, [r0]
    8390:	e2800001 	add	r0, r0, #1
    8394:	eaffffe2 	b	8324 <strip+0x18>
    8398:	e0803002 	add	r3, r0, r2
    839c:	e3530001 	cmp	r3, #1
    83a0:	d4c01001 	strble	r1, [r0], #1
    83a4:	dafffffb 	ble	8398 <strip+0x8c>
    83a8:	e3a03000 	mov	r3, #0
    83ac:	e5c03000 	strb	r3, [r0]
    83b0:	e8bd8010 	pop	{r4, pc}
    83b4:	00079604 	.word	0x00079604

000083b8 <read_int>:
    83b8:	e52de004 	push	{lr}		; (str lr, [sp, #-4]!)
    83bc:	e3a0e00a 	mov	lr, #10
    83c0:	e5903000 	ldr	r3, [r0]
    83c4:	e59fc058 	ldr	ip, [pc, #88]	; 8424 <read_int+0x6c>
    83c8:	e5d32000 	ldrb	r2, [r3]
    83cc:	e2422030 	sub	r2, r2, #48	; 0x30
    83d0:	e5903000 	ldr	r3, [r0]
    83d4:	e2831001 	add	r1, r3, #1
    83d8:	e5801000 	str	r1, [r0]
    83dc:	e5d33001 	ldrb	r3, [r3, #1]
    83e0:	e2433030 	sub	r3, r3, #48	; 0x30
    83e4:	e3530009 	cmp	r3, #9
    83e8:	8a00000b 	bhi	841c <read_int+0x64>
    83ec:	e3520000 	cmp	r2, #0
    83f0:	bafffff6 	blt	83d0 <read_int+0x18>
    83f4:	e152000c 	cmp	r2, ip
    83f8:	ca000005 	bgt	8414 <read_int+0x5c>
    83fc:	e3e01102 	mvn	r1, #-2147483648	; 0x80000000
    8400:	e002029e 	mul	r2, lr, r2
    8404:	e0631001 	rsb	r1, r3, r1
    8408:	e1510002 	cmp	r1, r2
    840c:	a0832002 	addge	r2, r3, r2
    8410:	aaffffee 	bge	83d0 <read_int+0x18>
    8414:	e3e02000 	mvn	r2, #0
    8418:	eaffffec 	b	83d0 <read_int+0x18>
    841c:	e1a00002 	mov	r0, r2
    8420:	e49df004 	pop	{pc}		; (ldr pc, [sp], #4)
    8424:	0ccccccc 	.word	0x0ccccccc

00008428 <group_number>:
    8428:	e92d4ff8 	push	{r3, r4, r5, r6, r7, r8, r9, sl, fp, lr}
    842c:	e1a07002 	mov	r7, r2
    8430:	e1a0a000 	mov	sl, r0
    8434:	e28db024 	add	fp, sp, #36	; 0x24
    8438:	e1a00003 	mov	r0, r3
    843c:	e1a05003 	mov	r5, r3
    8440:	e1a04001 	mov	r4, r1
    8444:	eb005311 	bl	1d090 <strlen>
    8448:	e5d78000 	ldrb	r8, [r7]
    844c:	e2483001 	sub	r3, r8, #1
    8450:	e20330ff 	and	r3, r3, #255	; 0xff
    8454:	e35300fd 	cmp	r3, #253	; 0xfd
    8458:	81a0000a 	movhi	r0, sl
    845c:	8a00002e 	bhi	851c <group_number+0xf4>
    8460:	e06a2004 	rsb	r2, sl, r4
    8464:	e282300e 	add	r3, r2, #14
    8468:	e3c33007 	bic	r3, r3, #7
    846c:	e04dd003 	sub	sp, sp, r3
    8470:	e1a09000 	mov	r9, r0
    8474:	e1a0100a 	mov	r1, sl
    8478:	e1a0000d 	mov	r0, sp
    847c:	eb0057df 	bl	1e400 <__mempcpy>
    8480:	e1a0600d 	mov	r6, sp
    8484:	e1a01004 	mov	r1, r4
    8488:	e1a03000 	mov	r3, r0
    848c:	e2877001 	add	r7, r7, #1
    8490:	e0850009 	add	r0, r5, r9
    8494:	e1530006 	cmp	r3, r6
    8498:	9a00001e 	bls	8518 <group_number+0xf0>
    849c:	e5532001 	ldrb	r2, [r3, #-1]
    84a0:	e2588001 	subs	r8, r8, #1
    84a4:	e5412001 	strb	r2, [r1, #-1]
    84a8:	e2433001 	sub	r3, r3, #1
    84ac:	e2414001 	sub	r4, r1, #1
    84b0:	1a000016 	bne	8510 <group_number+0xe8>
    84b4:	e1530006 	cmp	r3, r6
    84b8:	9a000014 	bls	8510 <group_number+0xe8>
    84bc:	e1a02000 	mov	r2, r0
    84c0:	e2411002 	sub	r1, r1, #2
    84c4:	e572c001 	ldrb	ip, [r2, #-1]!
    84c8:	e1a04001 	mov	r4, r1
    84cc:	e065e002 	rsb	lr, r5, r2
    84d0:	e35e0000 	cmp	lr, #0
    84d4:	e441c001 	strb	ip, [r1], #-1
    84d8:	cafffff9 	bgt	84c4 <group_number+0x9c>
    84dc:	e5d78000 	ldrb	r8, [r7]
    84e0:	e35800ff 	cmp	r8, #255	; 0xff
    84e4:	1a000006 	bne	8504 <group_number+0xdc>
    84e8:	e1a04001 	mov	r4, r1
    84ec:	e5732001 	ldrb	r2, [r3, #-1]!
    84f0:	e1a00004 	mov	r0, r4
    84f4:	e1560003 	cmp	r6, r3
    84f8:	e4442001 	strb	r2, [r4], #-1
    84fc:	3afffffa 	bcc	84ec <group_number+0xc4>
    8500:	ea000005 	b	851c <group_number+0xf4>
    8504:	e3580000 	cmp	r8, #0
    8508:	05578001 	ldrbeq	r8, [r7, #-1]
    850c:	12877001 	addne	r7, r7, #1
    8510:	e1a01004 	mov	r1, r4
    8514:	eaffffde 	b	8494 <group_number+0x6c>
    8518:	e1a00001 	mov	r0, r1
    851c:	e24bd024 	sub	sp, fp, #36	; 0x24
    8520:	e8bd8ff8 	pop	{r3, r4, r5, r6, r7, r8, r9, sl, fp, pc}

00008524 <_i18n_number_rewrite>:
    8524:	e92d4ff0 	push	{r4, r5, r6, r7, r8, r9, sl, fp, lr}
    8528:	e28db020 	add	fp, sp, #32
    852c:	e24dd03c 	sub	sp, sp, #60	; 0x3c
    8530:	e1a07000 	mov	r7, r0
    8534:	e59f01d4 	ldr	r0, [pc, #468]	; 8710 <_i18n_number_rewrite+0x1ec>
    8538:	e1a04002 	mov	r4, r2
    853c:	e1a05001 	mov	r5, r1
    8540:	eb00f6d5 	bl	4609c <__wctrans>
    8544:	e1a06000 	mov	r6, r0
    8548:	e3a0002e 	mov	r0, #46	; 0x2e
    854c:	e1a01006 	mov	r1, r6
    8550:	eb00f6f3 	bl	46124 <__towctrans>
    8554:	e1a01006 	mov	r1, r6
    8558:	e1a08000 	mov	r8, r0
    855c:	e3a0002c 	mov	r0, #44	; 0x2c
    8560:	eb00f6ef 	bl	46124 <__towctrans>
    8564:	e3560000 	cmp	r6, #0
    8568:	0a00001a 	beq	85d8 <_i18n_number_rewrite+0xb4>
    856c:	e3a0a000 	mov	sl, #0
    8570:	e24b2054 	sub	r2, fp, #84	; 0x54
    8574:	e1a09000 	mov	r9, r0
    8578:	e1a01008 	mov	r1, r8
    857c:	e24b004c 	sub	r0, fp, #76	; 0x4c
    8580:	e50ba054 	str	sl, [fp, #-84]	; 0x54
    8584:	e50ba050 	str	sl, [fp, #-80]	; 0x50
    8588:	eb00e673 	bl	41f5c <__wcrtomb>
    858c:	e3700001 	cmn	r0, #1
    8590:	03a0302e 	moveq	r3, #46	; 0x2e
    8594:	124b2024 	subne	r2, fp, #36	; 0x24
    8598:	10820000 	addne	r0, r2, r0
    859c:	1540a028 	strbne	sl, [r0, #-40]	; 0x28
    85a0:	e24b2054 	sub	r2, fp, #84	; 0x54
    85a4:	e1a01009 	mov	r1, r9
    85a8:	e24b0038 	sub	r0, fp, #56	; 0x38
    85ac:	014b34bc 	strheq	r3, [fp, #-76]	; 0xffffffb4
    85b0:	e50ba054 	str	sl, [fp, #-84]	; 0x54
    85b4:	e50ba050 	str	sl, [fp, #-80]	; 0x50
    85b8:	eb00e667 	bl	41f5c <__wcrtomb>
    85bc:	e3700001 	cmn	r0, #1
    85c0:	e3a03000 	mov	r3, #0
    85c4:	03a0302c 	moveq	r3, #44	; 0x2c
    85c8:	124b2024 	subne	r2, fp, #36	; 0x24
    85cc:	10820000 	addne	r0, r2, r0
    85d0:	014b33b8 	strheq	r3, [fp, #-56]	; 0xffffffc8
    85d4:	15403014 	strbne	r3, [r0, #-20]
    85d8:	e0672005 	rsb	r2, r7, r5
    85dc:	e3520a01 	cmp	r2, #4096	; 0x1000
    85e0:	93a00001 	movls	r0, #1
    85e4:	9a000005 	bls	8600 <_i18n_number_rewrite+0xdc>
    85e8:	e1a00002 	mov	r0, r2
    85ec:	e50b2058 	str	r2, [fp, #-88]	; 0x58
    85f0:	eb0063c2 	bl	21500 <__libc_alloca_cutoff>
    85f4:	e2900000 	adds	r0, r0, #0
    85f8:	13a00001 	movne	r0, #1
    85fc:	e51b2058 	ldr	r2, [fp, #-88]	; 0x58
    8600:	e2108001 	ands	r8, r0, #1
    8604:	0a000004 	beq	861c <_i18n_number_rewrite+0xf8>
    8608:	e282300e 	add	r3, r2, #14
    860c:	e3c33007 	bic	r3, r3, #7
    8610:	e04dd003 	sub	sp, sp, r3
    8614:	e1a0900d 	mov	r9, sp
    8618:	ea000005 	b	8634 <_i18n_number_rewrite+0x110>
    861c:	e1a00002 	mov	r0, r2
    8620:	e50b2058 	str	r2, [fp, #-88]	; 0x58
    8624:	eb004971 	bl	1abf0 <__libc_malloc>
    8628:	e2509000 	subs	r9, r0, #0
    862c:	e51b2058 	ldr	r2, [fp, #-88]	; 0x58
    8630:	0a000033 	beq	8704 <_i18n_number_rewrite+0x1e0>
    8634:	e1a01007 	mov	r1, r7
    8638:	e1a00009 	mov	r0, r9
    863c:	eb00576f 	bl	1e400 <__mempcpy>
    8640:	e59f70cc 	ldr	r7, [pc, #204]	; 8714 <_i18n_number_rewrite+0x1f0>
    8644:	e240a001 	sub	sl, r0, #1
    8648:	e159000a 	cmp	r9, sl
    864c:	8a000025 	bhi	86e8 <_i18n_number_rewrite+0x1c4>
    8650:	e5503001 	ldrb	r3, [r0, #-1]
    8654:	e2432030 	sub	r2, r3, #48	; 0x30
    8658:	e3520009 	cmp	r2, #9
    865c:	8a00000d 	bhi	8698 <_i18n_number_rewrite+0x174>
    8660:	eb0003de 	bl	95e0 <__aeabi_read_tp>
    8664:	e79f2007 	ldr	r2, [pc, r7]
    8668:	e7902002 	ldr	r2, [r0, r2]
    866c:	e5922000 	ldr	r2, [r2]
    8670:	e0823103 	add	r3, r2, r3, lsl #2
    8674:	e5935008 	ldr	r5, [r3, #8]
    8678:	e1a00005 	mov	r0, r5
    867c:	eb005283 	bl	1d090 <strlen>
    8680:	e0604004 	rsb	r4, r0, r4
    8684:	e2500001 	subs	r0, r0, #1
    8688:	3a000014 	bcc	86e0 <_i18n_number_rewrite+0x1bc>
    868c:	e7d5c000 	ldrb	ip, [r5, r0]
    8690:	e7c4c000 	strb	ip, [r4, r0]
    8694:	eafffffa 	b	8684 <_i18n_number_rewrite+0x160>
    8698:	e3560000 	cmp	r6, #0
    869c:	0a000002 	beq	86ac <_i18n_number_rewrite+0x188>
    86a0:	e20320fd 	and	r2, r3, #253	; 0xfd
    86a4:	e352002c 	cmp	r2, #44	; 0x2c
    86a8:	0a000002 	beq	86b8 <_i18n_number_rewrite+0x194>
    86ac:	e5443001 	strb	r3, [r4, #-1]
    86b0:	e2444001 	sub	r4, r4, #1
    86b4:	ea000009 	b	86e0 <_i18n_number_rewrite+0x1bc>
    86b8:	e353002e 	cmp	r3, #46	; 0x2e
    86bc:	024b504c 	subeq	r5, fp, #76	; 0x4c
    86c0:	124b5038 	subne	r5, fp, #56	; 0x38
    86c4:	e1a00005 	mov	r0, r5
    86c8:	eb005270 	bl	1d090 <strlen>
    86cc:	e0604004 	rsb	r4, r0, r4
    86d0:	e2500001 	subs	r0, r0, #1
    86d4:	27d53000 	ldrbcs	r3, [r5, r0]
    86d8:	27c43000 	strbcs	r3, [r4, r0]
    86dc:	2afffffb 	bcs	86d0 <_i18n_number_rewrite+0x1ac>
    86e0:	e1a0000a 	mov	r0, sl
    86e4:	eaffffd6 	b	8644 <_i18n_number_rewrite+0x120>
    86e8:	e3580000 	cmp	r8, #0
    86ec:	11a00004 	movne	r0, r4
    86f0:	1a000004 	bne	8708 <_i18n_number_rewrite+0x1e4>
    86f4:	e1a00009 	mov	r0, r9
    86f8:	eb004b2b 	bl	1b3ac <__cfree>
    86fc:	e1a00004 	mov	r0, r4
    8700:	ea000000 	b	8708 <_i18n_number_rewrite+0x1e4>
    8704:	e1a00007 	mov	r0, r7
    8708:	e24bd020 	sub	sp, fp, #32
    870c:	e8bd8ff0 	pop	{r4, r5, r6, r7, r8, r9, sl, fp, pc}
    8710:	0007a87c 	.word	0x0007a87c
    8714:	000809d0 	.word	0x000809d0

00008718 <_i18n_number_rewrite>:
    8718:	e92d4ff0 	push	{r4, r5, r6, r7, r8, r9, sl, fp, lr}
    871c:	e28db020 	add	fp, sp, #32
    8720:	e24dd03c 	sub	sp, sp, #60	; 0x3c
    8724:	e1a07000 	mov	r7, r0
    8728:	e59f01d4 	ldr	r0, [pc, #468]	; 8904 <_i18n_number_rewrite+0x1ec>
    872c:	e1a04002 	mov	r4, r2
    8730:	e1a05001 	mov	r5, r1
    8734:	eb00f658 	bl	4609c <__wctrans>
    8738:	e1a06000 	mov	r6, r0
    873c:	e3a0002e 	mov	r0, #46	; 0x2e
    8740:	e1a01006 	mov	r1, r6
    8744:	eb00f676 	bl	46124 <__towctrans>
    8748:	e1a01006 	mov	r1, r6
    874c:	e1a08000 	mov	r8, r0
    8750:	e3a0002c 	mov	r0, #44	; 0x2c
    8754:	eb00f672 	bl	46124 <__towctrans>
    8758:	e3560000 	cmp	r6, #0
    875c:	0a00001a 	beq	87cc <_i18n_number_rewrite+0xb4>
    8760:	e3a0a000 	mov	sl, #0
    8764:	e24b2054 	sub	r2, fp, #84	; 0x54
    8768:	e1a09000 	mov	r9, r0
    876c:	e1a01008 	mov	r1, r8
    8770:	e24b004c 	sub	r0, fp, #76	; 0x4c
    8774:	e50ba054 	str	sl, [fp, #-84]	; 0x54
    8778:	e50ba050 	str	sl, [fp, #-80]	; 0x50
    877c:	eb00e5f6 	bl	41f5c <__wcrtomb>
    8780:	e3700001 	cmn	r0, #1
    8784:	03a0302e 	moveq	r3, #46	; 0x2e
    8788:	124b2024 	subne	r2, fp, #36	; 0x24
    878c:	10820000 	addne	r0, r2, r0
    8790:	1540a028 	strbne	sl, [r0, #-40]	; 0x28
    8794:	e24b2054 	sub	r2, fp, #84	; 0x54
    8798:	e1a01009 	mov	r1, r9
    879c:	e24b0038 	sub	r0, fp, #56	; 0x38
    87a0:	014b34bc 	strheq	r3, [fp, #-76]	; 0xffffffb4
    87a4:	e50ba054 	str	sl, [fp, #-84]	; 0x54
    87a8:	e50ba050 	str	sl, [fp, #-80]	; 0x50
    87ac:	eb00e5ea 	bl	41f5c <__wcrtomb>
    87b0:	e3700001 	cmn	r0, #1
    87b4:	e3a03000 	mov	r3, #0
    87b8:	03a0302c 	moveq	r3, #44	; 0x2c
    87bc:	124b2024 	subne	r2, fp, #36	; 0x24
    87c0:	10820000 	addne	r0, r2, r0
    87c4:	014b33b8 	strheq	r3, [fp, #-56]	; 0xffffffc8
    87c8:	15403014 	strbne	r3, [r0, #-20]
    87cc:	e0672005 	rsb	r2, r7, r5
    87d0:	e3520a01 	cmp	r2, #4096	; 0x1000
    87d4:	93a00001 	movls	r0, #1
    87d8:	9a000005 	bls	87f4 <_i18n_number_rewrite+0xdc>
    87dc:	e1a00002 	mov	r0, r2
    87e0:	e50b2058 	str	r2, [fp, #-88]	; 0x58
    87e4:	eb006345 	bl	21500 <__libc_alloca_cutoff>
    87e8:	e2900000 	adds	r0, r0, #0
    87ec:	13a00001 	movne	r0, #1
    87f0:	e51b2058 	ldr	r2, [fp, #-88]	; 0x58
    87f4:	e2108001 	ands	r8, r0, #1
    87f8:	0a000004 	beq	8810 <_i18n_number_rewrite+0xf8>
    87fc:	e282300e 	add	r3, r2, #14
    8800:	e3c33007 	bic	r3, r3, #7
    8804:	e04dd003 	sub	sp, sp, r3
    8808:	e1a0900d 	mov	r9, sp
    880c:	ea000005 	b	8828 <_i18n_number_rewrite+0x110>
    8810:	e1a00002 	mov	r0, r2
    8814:	e50b2058 	str	r2, [fp, #-88]	; 0x58
    8818:	eb0048f4 	bl	1abf0 <__libc_malloc>
    881c:	e2509000 	subs	r9, r0, #0
    8820:	e51b2058 	ldr	r2, [fp, #-88]	; 0x58
    8824:	0a000033 	beq	88f8 <_i18n_number_rewrite+0x1e0>
    8828:	e1a01007 	mov	r1, r7
    882c:	e1a00009 	mov	r0, r9
    8830:	eb0056f2 	bl	1e400 <__mempcpy>
    8834:	e59f70cc 	ldr	r7, [pc, #204]	; 8908 <_i18n_number_rewrite+0x1f0>
    8838:	e240a001 	sub	sl, r0, #1
    883c:	e159000a 	cmp	r9, sl
    8840:	8a000025 	bhi	88dc <_i18n_number_rewrite+0x1c4>
    8844:	e5503001 	ldrb	r3, [r0, #-1]
    8848:	e2432030 	sub	r2, r3, #48	; 0x30
    884c:	e3520009 	cmp	r2, #9
    8850:	8a00000d 	bhi	888c <_i18n_number_rewrite+0x174>
    8854:	eb000361 	bl	95e0 <__aeabi_read_tp>
    8858:	e79f2007 	ldr	r2, [pc, r7]
    885c:	e7902002 	ldr	r2, [r0, r2]
    8860:	e5922000 	ldr	r2, [r2]
    8864:	e0823103 	add	r3, r2, r3, lsl #2
    8868:	e5935008 	ldr	r5, [r3, #8]
    886c:	e1a00005 	mov	r0, r5
    8870:	eb005206 	bl	1d090 <strlen>
    8874:	e0604004 	rsb	r4, r0, r4
    8878:	e2500001 	subs	r0, r0, #1
    887c:	3a000014 	bcc	88d4 <_i18n_number_rewrite+0x1bc>
    8880:	e7d5c000 	ldrb	ip, [r5, r0]
    8884:	e7c4c000 	strb	ip, [r4, r0]
    8888:	eafffffa 	b	8878 <_i18n_number_rewrite+0x160>
    888c:	e3560000 	cmp	r6, #0
    8890:	0a000002 	beq	88a0 <_i18n_number_rewrite+0x188>
    8894:	e20320fd 	and	r2, r3, #253	; 0xfd
    8898:	e352002c 	cmp	r2, #44	; 0x2c
    889c:	0a000002 	beq	88ac <_i18n_number_rewrite+0x194>
    88a0:	e5443001 	strb	r3, [r4, #-1]
    88a4:	e2444001 	sub	r4, r4, #1
    88a8:	ea000009 	b	88d4 <_i18n_number_rewrite+0x1bc>
    88ac:	e353002e 	cmp	r3, #46	; 0x2e
    88b0:	024b504c 	subeq	r5, fp, #76	; 0x4c
    88b4:	124b5038 	subne	r5, fp, #56	; 0x38
    88b8:	e1a00005 	mov	r0, r5
    88bc:	eb0051f3 	bl	1d090 <strlen>
    88c0:	e0604004 	rsb	r4, r0, r4
    88c4:	e2500001 	subs	r0, r0, #1
    88c8:	27d53000 	ldrbcs	r3, [r5, r0]
    88cc:	27c43000 	strbcs	r3, [r4, r0]
    88d0:	2afffffb 	bcs	88c4 <_i18n_number_rewrite+0x1ac>
    88d4:	e1a0000a 	mov	r0, sl
    88d8:	eaffffd6 	b	8838 <_i18n_number_rewrite+0x120>
    88dc:	e3580000 	cmp	r8, #0
    88e0:	11a00004 	movne	r0, r4
    88e4:	1a000004 	bne	88fc <_i18n_number_rewrite+0x1e4>
    88e8:	e1a00009 	mov	r0, r9
    88ec:	eb004aae 	bl	1b3ac <__cfree>
    88f0:	e1a00004 	mov	r0, r4
    88f4:	ea000000 	b	88fc <_i18n_number_rewrite+0x1e4>
    88f8:	e1a00007 	mov	r0, r7
    88fc:	e24bd020 	sub	sp, fp, #32
    8900:	e8bd8ff0 	pop	{r4, r5, r6, r7, r8, r9, sl, fp, pc}
    8904:	0007a87c 	.word	0x0007a87c
    8908:	000807dc 	.word	0x000807dc

0000890c <read_int>:
    890c:	e92d4010 	push	{r4, lr}
    8910:	e3a0400a 	mov	r4, #10
    8914:	e5903000 	ldr	r3, [r0]
    8918:	e59fe054 	ldr	lr, [pc, #84]	; 8974 <read_int+0x68>
    891c:	e5932000 	ldr	r2, [r3]
    8920:	e2422030 	sub	r2, r2, #48	; 0x30
    8924:	e5931004 	ldr	r1, [r3, #4]
    8928:	e2833004 	add	r3, r3, #4
    892c:	e2411030 	sub	r1, r1, #48	; 0x30
    8930:	e3510009 	cmp	r1, #9
    8934:	8a00000b 	bhi	8968 <read_int+0x5c>
    8938:	e3520000 	cmp	r2, #0
    893c:	bafffff8 	blt	8924 <read_int+0x18>
    8940:	e152000e 	cmp	r2, lr
    8944:	ca000005 	bgt	8960 <read_int+0x54>
    8948:	e3e0c102 	mvn	ip, #-2147483648	; 0x80000000
    894c:	e0020294 	mul	r2, r4, r2
    8950:	e061c00c 	rsb	ip, r1, ip
    8954:	e15c0002 	cmp	ip, r2
    8958:	a0822001 	addge	r2, r2, r1
    895c:	aafffff0 	bge	8924 <read_int+0x18>
    8960:	e3e02000 	mvn	r2, #0
    8964:	eaffffee 	b	8924 <read_int+0x18>
    8968:	e5803000 	str	r3, [r0]
    896c:	e1a00002 	mov	r0, r2
    8970:	e8bd8010 	pop	{r4, pc}
    8974:	0ccccccc 	.word	0x0ccccccc

00008978 <group_number>:
    8978:	e92d49f8 	push	{r3, r4, r5, r6, r7, r8, fp, lr}
    897c:	e5d24000 	ldrb	r4, [r2]
    8980:	e1a06002 	mov	r6, r2
    8984:	e2442001 	sub	r2, r4, #1
    8988:	e20220ff 	and	r2, r2, #255	; 0xff
    898c:	e35200fd 	cmp	r2, #253	; 0xfd
    8990:	e28db01c 	add	fp, sp, #28
    8994:	8a000027 	bhi	8a38 <group_number+0xc0>
    8998:	e1a08001 	mov	r8, r1
    899c:	e0602001 	rsb	r2, r0, r1
    89a0:	e1a07003 	mov	r7, r3
    89a4:	e282300e 	add	r3, r2, #14
    89a8:	e3c33007 	bic	r3, r3, #7
    89ac:	e04dd003 	sub	sp, sp, r3
    89b0:	e1a01000 	mov	r1, r0
    89b4:	e1a0000d 	mov	r0, sp
    89b8:	eb005690 	bl	1e400 <__mempcpy>
    89bc:	e1a0500d 	mov	r5, sp
    89c0:	e1a01008 	mov	r1, r8
    89c4:	e2866001 	add	r6, r6, #1
    89c8:	e1500005 	cmp	r0, r5
    89cc:	9a000018 	bls	8a34 <group_number+0xbc>
    89d0:	e510c004 	ldr	ip, [r0, #-4]
    89d4:	e2544001 	subs	r4, r4, #1
    89d8:	e501c004 	str	ip, [r1, #-4]
    89dc:	e2400004 	sub	r0, r0, #4
    89e0:	e241c004 	sub	ip, r1, #4
    89e4:	1a000010 	bne	8a2c <group_number+0xb4>
    89e8:	e1500005 	cmp	r0, r5
    89ec:	9a00000e 	bls	8a2c <group_number+0xb4>
    89f0:	e5017008 	str	r7, [r1, #-8]
    89f4:	e5d64000 	ldrb	r4, [r6]
    89f8:	e241c008 	sub	ip, r1, #8
    89fc:	e35400ff 	cmp	r4, #255	; 0xff
    8a00:	1a000006 	bne	8a20 <group_number+0xa8>
    8a04:	e241300c 	sub	r3, r1, #12
    8a08:	e5302004 	ldr	r2, [r0, #-4]!
    8a0c:	e1a01003 	mov	r1, r3
    8a10:	e1550000 	cmp	r5, r0
    8a14:	e4032004 	str	r2, [r3], #-4
    8a18:	3afffffa 	bcc	8a08 <group_number+0x90>
    8a1c:	ea000004 	b	8a34 <group_number+0xbc>
    8a20:	e3540000 	cmp	r4, #0
    8a24:	05564001 	ldrbeq	r4, [r6, #-1]
    8a28:	12866001 	addne	r6, r6, #1
    8a2c:	e1a0100c 	mov	r1, ip
    8a30:	eaffffe4 	b	89c8 <group_number+0x50>
    8a34:	e1a00001 	mov	r0, r1
    8a38:	e24bd01c 	sub	sp, fp, #28
    8a3c:	e8bd89f8 	pop	{r3, r4, r5, r6, r7, r8, fp, pc}

00008a40 <_i18n_number_rewrite>:
    8a40:	e92d4ff0 	push	{r4, r5, r6, r7, r8, r9, sl, fp, lr}
    8a44:	e28db020 	add	fp, sp, #32
    8a48:	e24dd00c 	sub	sp, sp, #12
    8a4c:	e1a0a000 	mov	sl, r0
    8a50:	e59f0128 	ldr	r0, [pc, #296]	; 8b80 <_i18n_number_rewrite+0x140>
    8a54:	e1a05001 	mov	r5, r1
    8a58:	e1a04002 	mov	r4, r2
    8a5c:	eb00f58e 	bl	4609c <__wctrans>
    8a60:	e1a09000 	mov	r9, r0
    8a64:	e3a0002e 	mov	r0, #46	; 0x2e
    8a68:	e1a01009 	mov	r1, r9
    8a6c:	eb00f5ac 	bl	46124 <__towctrans>
    8a70:	e1a01009 	mov	r1, r9
    8a74:	e50b0028 	str	r0, [fp, #-40]	; 0x28
    8a78:	e3a0002c 	mov	r0, #44	; 0x2c
    8a7c:	eb00f5a8 	bl	46124 <__towctrans>
    8a80:	e06a7005 	rsb	r7, sl, r5
    8a84:	e3570a01 	cmp	r7, #4096	; 0x1000
    8a88:	e1a08000 	mov	r8, r0
    8a8c:	93a00001 	movls	r0, #1
    8a90:	9a000003 	bls	8aa4 <_i18n_number_rewrite+0x64>
    8a94:	e1a00007 	mov	r0, r7
    8a98:	eb006298 	bl	21500 <__libc_alloca_cutoff>
    8a9c:	e2900000 	adds	r0, r0, #0
    8aa0:	13a00001 	movne	r0, #1
    8aa4:	e2106001 	ands	r6, r0, #1
    8aa8:	0a000004 	beq	8ac0 <_i18n_number_rewrite+0x80>
    8aac:	e287300e 	add	r3, r7, #14
    8ab0:	e3c33007 	bic	r3, r3, #7
    8ab4:	e04dd003 	sub	sp, sp, r3
    8ab8:	e1a0500d 	mov	r5, sp
    8abc:	ea000003 	b	8ad0 <_i18n_number_rewrite+0x90>
    8ac0:	e1a00007 	mov	r0, r7
    8ac4:	eb004849 	bl	1abf0 <__libc_malloc>
    8ac8:	e2505000 	subs	r5, r0, #0
    8acc:	0a000028 	beq	8b74 <_i18n_number_rewrite+0x134>
    8ad0:	e1a0100a 	mov	r1, sl
    8ad4:	e1a02007 	mov	r2, r7
    8ad8:	e1a00005 	mov	r0, r5
    8adc:	eb005647 	bl	1e400 <__mempcpy>
    8ae0:	e59f209c 	ldr	r2, [pc, #156]	; 8b84 <_i18n_number_rewrite+0x144>
    8ae4:	e1a03000 	mov	r3, r0
    8ae8:	e79f2002 	ldr	r2, [pc, r2]
    8aec:	eb0002bb 	bl	95e0 <__aeabi_read_tp>
    8af0:	e7901002 	ldr	r1, [r0, r2]
    8af4:	e243c004 	sub	ip, r3, #4
    8af8:	e155000c 	cmp	r5, ip
    8afc:	8a000015 	bhi	8b58 <_i18n_number_rewrite+0x118>
    8b00:	e5133004 	ldr	r3, [r3, #-4]
    8b04:	e2432030 	sub	r2, r3, #48	; 0x30
    8b08:	e3520009 	cmp	r2, #9
    8b0c:	8a000004 	bhi	8b24 <_i18n_number_rewrite+0xe4>
    8b10:	e5912000 	ldr	r2, [r1]
    8b14:	e0823103 	add	r3, r2, r3, lsl #2
    8b18:	e5933030 	ldr	r3, [r3, #48]	; 0x30
    8b1c:	e5043004 	str	r3, [r4, #-4]
    8b20:	ea000009 	b	8b4c <_i18n_number_rewrite+0x10c>
    8b24:	e3590000 	cmp	r9, #0
    8b28:	0a000006 	beq	8b48 <_i18n_number_rewrite+0x108>
    8b2c:	e3c32002 	bic	r2, r3, #2
    8b30:	e352002c 	cmp	r2, #44	; 0x2c
    8b34:	1a000003 	bne	8b48 <_i18n_number_rewrite+0x108>
    8b38:	e353002e 	cmp	r3, #46	; 0x2e
    8b3c:	e51b2028 	ldr	r2, [fp, #-40]	; 0x28
    8b40:	11a02008 	movne	r2, r8
    8b44:	e1a03002 	mov	r3, r2
    8b48:	e5043004 	str	r3, [r4, #-4]
    8b4c:	e1a0300c 	mov	r3, ip
    8b50:	e2444004 	sub	r4, r4, #4
    8b54:	eaffffe6 	b	8af4 <_i18n_number_rewrite+0xb4>
    8b58:	e3560000 	cmp	r6, #0
    8b5c:	11a00004 	movne	r0, r4
    8b60:	1a000004 	bne	8b78 <_i18n_number_rewrite+0x138>
    8b64:	e1a00005 	mov	r0, r5
    8b68:	eb004a0f 	bl	1b3ac <__cfree>
    8b6c:	e1a00004 	mov	r0, r4
    8b70:	ea000000 	b	8b78 <_i18n_number_rewrite+0x138>
    8b74:	e1a0000a 	mov	r0, sl
    8b78:	e24bd020 	sub	sp, fp, #32
    8b7c:	e8bd8ff0 	pop	{r4, r5, r6, r7, r8, r9, sl, fp, pc}
    8b80:	0007a87c 	.word	0x0007a87c
    8b84:	0008054c 	.word	0x0008054c

00008b88 <fini>:
    8b88:	e59f3004 	ldr	r3, [pc, #4]	; 8b94 <fini+0xc>
    8b8c:	e5930014 	ldr	r0, [r3, #20]
    8b90:	ea0146ba 	b	5a680 <check_free.isra.0>
    8b94:	0008abac 	.word	0x0008abac

00008b98 <_start>:
    8b98:	e3a0b000 	mov	fp, #0
    8b9c:	e3a0e000 	mov	lr, #0
    8ba0:	e49d1004 	pop	{r1}		; (ldr r1, [sp], #4)
    8ba4:	e1a0200d 	mov	r2, sp
    8ba8:	e52d2004 	push	{r2}		; (str r2, [sp, #-4]!)
    8bac:	e52d0004 	push	{r0}		; (str r0, [sp, #-4]!)
    8bb0:	e59fc010 	ldr	ip, [pc, #16]	; 8bc8 <_start+0x30>
    8bb4:	e52dc004 	push	{ip}		; (str ip, [sp, #-4]!)
    8bb8:	e59f000c 	ldr	r0, [pc, #12]	; 8bcc <_start+0x34>
    8bbc:	e59f300c 	ldr	r3, [pc, #12]	; 8bd0 <_start+0x38>
    8bc0:	eb000080 	bl	8dc8 <__libc_start_main>
    8bc4:	eb001509 	bl	dff0 <abort>
    8bc8:	00009598 	.word	0x00009598
    8bcc:	00008d6c 	.word	0x00008d6c
    8bd0:	000094f8 	.word	0x000094f8

00008bd4 <call_weak_fn>:
    8bd4:	e59f3014 	ldr	r3, [pc, #20]	; 8bf0 <call_weak_fn+0x1c>
    8bd8:	e59f2014 	ldr	r2, [pc, #20]	; 8bf4 <call_weak_fn+0x20>
    8bdc:	e08f3003 	add	r3, pc, r3
    8be0:	e7932002 	ldr	r2, [r3, r2]
    8be4:	e3520000 	cmp	r2, #0
    8be8:	012fff1e 	bxeq	lr
    8bec:	e1a00000 	nop			; (mov r0, r0)
    8bf0:	0008041c 	.word	0x0008041c
    8bf4:	0000006c 	.word	0x0000006c

00008bf8 <deregister_tm_clones>:
    8bf8:	e92d4008 	push	{r3, lr}
    8bfc:	e59f0020 	ldr	r0, [pc, #32]	; 8c24 <deregister_tm_clones+0x2c>
    8c00:	e59f3020 	ldr	r3, [pc, #32]	; 8c28 <deregister_tm_clones+0x30>
    8c04:	e0603003 	rsb	r3, r0, r3
    8c08:	e3530006 	cmp	r3, #6
    8c0c:	98bd8008 	popls	{r3, pc}
    8c10:	e59f3014 	ldr	r3, [pc, #20]	; 8c2c <deregister_tm_clones+0x34>
    8c14:	e3530000 	cmp	r3, #0
    8c18:	08bd8008 	popeq	{r3, pc}
    8c1c:	e12fff33 	blx	r3
    8c20:	e8bd8008 	pop	{r3, pc}
    8c24:	00089edc 	.word	0x00089edc
    8c28:	00089edf 	.word	0x00089edf
    8c2c:	00000000 	.word	0x00000000

00008c30 <register_tm_clones>:
    8c30:	e92d4008 	push	{r3, lr}
    8c34:	e59f0028 	ldr	r0, [pc, #40]	; 8c64 <register_tm_clones+0x34>
    8c38:	e59f3028 	ldr	r3, [pc, #40]	; 8c68 <register_tm_clones+0x38>
    8c3c:	e0603003 	rsb	r3, r0, r3
    8c40:	e1a03143 	asr	r3, r3, #2
    8c44:	e0833fa3 	add	r3, r3, r3, lsr #31
    8c48:	e1b010c3 	asrs	r1, r3, #1
    8c4c:	08bd8008 	popeq	{r3, pc}
    8c50:	e59f2014 	ldr	r2, [pc, #20]	; 8c6c <register_tm_clones+0x3c>
    8c54:	e3520000 	cmp	r2, #0
    8c58:	08bd8008 	popeq	{r3, pc}
    8c5c:	e12fff32 	blx	r2
    8c60:	e8bd8008 	pop	{r3, pc}
    8c64:	00089edc 	.word	0x00089edc
    8c68:	00089edc 	.word	0x00089edc
    8c6c:	00000000 	.word	0x00000000

00008c70 <__do_global_dtors_aux>:
    8c70:	e92d4010 	push	{r4, lr}
    8c74:	e59f402c 	ldr	r4, [pc, #44]	; 8ca8 <__do_global_dtors_aux+0x38>
    8c78:	e5d43000 	ldrb	r3, [r4]
    8c7c:	e3530000 	cmp	r3, #0
    8c80:	18bd8010 	popne	{r4, pc}
    8c84:	ebffffdb 	bl	8bf8 <deregister_tm_clones>
    8c88:	e59f301c 	ldr	r3, [pc, #28]	; 8cac <__do_global_dtors_aux+0x3c>
    8c8c:	e3530000 	cmp	r3, #0
    8c90:	0a000001 	beq	8c9c <__do_global_dtors_aux+0x2c>
    8c94:	e59f0014 	ldr	r0, [pc, #20]	; 8cb0 <__do_global_dtors_aux+0x40>
    8c98:	e1a00000 	nop			; (mov r0, r0)
    8c9c:	e3a03001 	mov	r3, #1
    8ca0:	e5c43000 	strb	r3, [r4]
    8ca4:	e8bd8010 	pop	{r4, pc}
    8ca8:	00089ee0 	.word	0x00089ee0
    8cac:	00000000 	.word	0x00000000
    8cb0:	000807e0 	.word	0x000807e0

00008cb4 <frame_dummy>:
    8cb4:	e92d4008 	push	{r3, lr}
    8cb8:	e59f3038 	ldr	r3, [pc, #56]	; 8cf8 <frame_dummy+0x44>
    8cbc:	e3530000 	cmp	r3, #0
    8cc0:	0a000002 	beq	8cd0 <frame_dummy+0x1c>
    8cc4:	e59f0030 	ldr	r0, [pc, #48]	; 8cfc <frame_dummy+0x48>
    8cc8:	e59f1030 	ldr	r1, [pc, #48]	; 8d00 <frame_dummy+0x4c>
    8ccc:	e1a00000 	nop			; (mov r0, r0)
    8cd0:	e59f002c 	ldr	r0, [pc, #44]	; 8d04 <frame_dummy+0x50>
    8cd4:	e5903000 	ldr	r3, [r0]
    8cd8:	e3530000 	cmp	r3, #0
    8cdc:	0a000003 	beq	8cf0 <frame_dummy+0x3c>
    8ce0:	e59f3020 	ldr	r3, [pc, #32]	; 8d08 <frame_dummy+0x54>
    8ce4:	e3530000 	cmp	r3, #0
    8ce8:	0a000000 	beq	8cf0 <frame_dummy+0x3c>
    8cec:	e12fff33 	blx	r3
    8cf0:	e8bd4008 	pop	{r3, lr}
    8cf4:	eaffffcd 	b	8c30 <register_tm_clones>
    8cf8:	00000000 	.word	0x00000000
    8cfc:	000807e0 	.word	0x000807e0
    8d00:	00089ee4 	.word	0x00089ee4
    8d04:	00088f88 	.word	0x00088f88
    8d08:	00000000 	.word	0x00000000

00008d0c <f1>:
    8d0c:	e52db004 	push	{fp}		; (str fp, [sp, #-4]!)
    8d10:	e28db000 	add	fp, sp, #0
    8d14:	e1a00003 	mov	r0, r3
    8d18:	e28bd000 	add	sp, fp, #0
    8d1c:	e8bd0800 	ldmfd	sp!, {fp}
    8d20:	e12fff1e 	bx	lr

00008d24 <f2>:
    8d24:	e52db004 	push	{fp}		; (str fp, [sp, #-4]!)
    8d28:	e28db000 	add	fp, sp, #0
    8d2c:	e1a00003 	mov	r0, r3
    8d30:	e28bd000 	add	sp, fp, #0
    8d34:	e8bd0800 	ldmfd	sp!, {fp}
    8d38:	e12fff1e 	bx	lr

00008d3c <f3>:
    8d3c:	e52db004 	push	{fp}		; (str fp, [sp, #-4]!)
    8d40:	e28db000 	add	fp, sp, #0
    8d44:	e1a00003 	mov	r0, r3
    8d48:	e28bd000 	add	sp, fp, #0
    8d4c:	e8bd0800 	ldmfd	sp!, {fp}
    8d50:	e12fff1e 	bx	lr

00008d54 <f4>:
    8d54:	e52db004 	push	{fp}		; (str fp, [sp, #-4]!)
    8d58:	e28db000 	add	fp, sp, #0
    8d5c:	e1a00003 	mov	r0, r3
    8d60:	e28bd000 	add	sp, fp, #0
    8d64:	e8bd0800 	ldmfd	sp!, {fp}
    8d68:	e12fff1e 	bx	lr

00008d6c <main>:
    8d6c:	e92d4800 	push	{fp, lr}
    8d70:	e28db004 	add	fp, sp, #4
    8d74:	e24dd010 	sub	sp, sp, #16
    8d78:	e50b0010 	str	r0, [fp, #-16]
    8d7c:	e50b1014 	str	r1, [fp, #-20]
    8d80:	e51b3010 	ldr	r3, [fp, #-16]
    8d84:	e50b3008 	str	r3, [fp, #-8]
    8d88:	e51b3008 	ldr	r3, [fp, #-8]
    8d8c:	e353000a 	cmp	r3, #10
    8d90:	ca000001 	bgt	8d9c <main+0x30>
    8d94:	ebffffdc 	bl	8d0c <f1>
    8d98:	ea000000 	b	8da0 <main+0x34>
    8d9c:	ebffffe0 	bl	8d24 <f2>
    8da0:	e51b3008 	ldr	r3, [fp, #-8]
    8da4:	e3530000 	cmp	r3, #0
    8da8:	ca000001 	bgt	8db4 <main+0x48>
    8dac:	ebffffe2 	bl	8d3c <f3>
    8db0:	ea000000 	b	8db8 <main+0x4c>
    8db4:	ebffffe6 	bl	8d54 <f4>
    8db8:	e3a03000 	mov	r3, #0
    8dbc:	e1a00003 	mov	r0, r3
    8dc0:	e24bd004 	sub	sp, fp, #4
    8dc4:	e8bd8800 	pop	{fp, pc}

00008dc8 <__libc_start_main>:
    8dc8:	e59fc2e4 	ldr	ip, [pc, #740]	; 90b4 <__libc_start_main+0x2ec>
    8dcc:	e92d47f0 	push	{r4, r5, r6, r7, r8, r9, sl, lr}
    8dd0:	e35c0000 	cmp	ip, #0
    8dd4:	e1a09003 	mov	r9, r3
    8dd8:	159c3000 	ldrne	r3, [ip]
    8ddc:	01a0300c 	moveq	r3, ip
    8de0:	116f3f13 	clzne	r3, r3
    8de4:	e24ddf4a 	sub	sp, sp, #296	; 0x128
    8de8:	e98d0006 	stmib	sp, {r1, r2}
    8dec:	e59d2004 	ldr	r2, [sp, #4]
    8df0:	e59d4008 	ldr	r4, [sp, #8]
    8df4:	e58d000c 	str	r0, [sp, #12]
    8df8:	e59d1150 	ldr	r1, [sp, #336]	; 0x150
    8dfc:	e2820001 	add	r0, r2, #1
    8e00:	e59fe2b0 	ldr	lr, [pc, #688]	; 90b8 <__libc_start_main+0x2f0>
    8e04:	e59fc2b0 	ldr	ip, [pc, #688]	; 90bc <__libc_start_main+0x2f4>
    8e08:	e59f22b0 	ldr	r2, [pc, #688]	; 90c0 <__libc_start_main+0x2f8>
    8e0c:	11a032a3 	lsrne	r3, r3, #5
    8e10:	e0840100 	add	r0, r4, r0, lsl #2
    8e14:	e59da148 	ldr	sl, [sp, #328]	; 0x148
    8e18:	e59d814c 	ldr	r8, [sp, #332]	; 0x14c
    8e1c:	e58e0000 	str	r0, [lr]
    8e20:	e58c3000 	str	r3, [ip]
    8e24:	e5821000 	str	r1, [r2]
    8e28:	e4903004 	ldr	r3, [r0], #4
    8e2c:	e3530000 	cmp	r3, #0
    8e30:	1afffffc 	bne	8e28 <__libc_start_main+0x60>
    8e34:	eb00637f 	bl	21c38 <_dl_aux_init>
    8e38:	e59f3284 	ldr	r3, [pc, #644]	; 90c4 <__libc_start_main+0x2fc>
    8e3c:	e5932000 	ldr	r2, [r3]
    8e40:	e3520000 	cmp	r2, #0
    8e44:	0a00006a 	beq	8ff4 <__libc_start_main+0x22c>
    8e48:	e59f326c 	ldr	r3, [pc, #620]	; 90bc <__libc_start_main+0x2f4>
    8e4c:	e5933000 	ldr	r3, [r3]
    8e50:	e3530000 	cmp	r3, #0
    8e54:	0a000058 	beq	8fbc <__libc_start_main+0x1f4>
    8e58:	e59f4268 	ldr	r4, [pc, #616]	; 90c8 <__libc_start_main+0x300>
    8e5c:	e59f3268 	ldr	r3, [pc, #616]	; 90cc <__libc_start_main+0x304>
    8e60:	e1540003 	cmp	r4, r3
    8e64:	2a000013 	bcs	8eb8 <__libc_start_main+0xf0>
    8e68:	e5d42004 	ldrb	r2, [r4, #4]
    8e6c:	e5945000 	ldr	r5, [r4]
    8e70:	e35200a0 	cmp	r2, #160	; 0xa0
    8e74:	1a000070 	bne	903c <__libc_start_main+0x274>
    8e78:	e1e07004 	mvn	r7, r4
    8e7c:	e0877003 	add	r7, r7, r3
    8e80:	e3c77007 	bic	r7, r7, #7
    8e84:	e0847007 	add	r7, r4, r7
    8e88:	e59f6240 	ldr	r6, [pc, #576]	; 90d0 <__libc_start_main+0x308>
    8e8c:	ea000003 	b	8ea0 <__libc_start_main+0xd8>
    8e90:	e5d4300c 	ldrb	r3, [r4, #12]
    8e94:	e5b45008 	ldr	r5, [r4, #8]!
    8e98:	e35300a0 	cmp	r3, #160	; 0xa0
    8e9c:	1a000066 	bne	903c <__libc_start_main+0x274>
    8ea0:	e5952000 	ldr	r2, [r5]
    8ea4:	e5960000 	ldr	r0, [r6]
    8ea8:	e12fff32 	blx	r2
    8eac:	e1540007 	cmp	r4, r7
    8eb0:	e5850000 	str	r0, [r5]
    8eb4:	1afffff5 	bne	8e90 <__libc_start_main+0xc8>
    8eb8:	eb000183 	bl	94cc <__pthread_initialize_minimal>
    8ebc:	e59f3210 	ldr	r3, [pc, #528]	; 90d4 <__libc_start_main+0x30c>
    8ec0:	e59f4210 	ldr	r4, [pc, #528]	; 90d8 <__libc_start_main+0x310>
    8ec4:	e5931000 	ldr	r1, [r3]
    8ec8:	e28d0010 	add	r0, sp, #16
    8ecc:	e5d12001 	ldrb	r2, [r1, #1]
    8ed0:	e5d13000 	ldrb	r3, [r1]
    8ed4:	e5d1c002 	ldrb	ip, [r1, #2]
    8ed8:	e1833402 	orr	r3, r3, r2, lsl #8
    8edc:	e5d12003 	ldrb	r2, [r1, #3]
    8ee0:	e183380c 	orr	r3, r3, ip, lsl #16
    8ee4:	e1833c02 	orr	r3, r3, r2, lsl #24
    8ee8:	e3c330ff 	bic	r3, r3, #255	; 0xff
    8eec:	e2811004 	add	r1, r1, #4
    8ef0:	e3a02004 	mov	r2, #4
    8ef4:	e5843000 	str	r3, [r4]
    8ef8:	eb005564 	bl	1e490 <memcpy>
    8efc:	e59d3010 	ldr	r3, [sp, #16]
    8f00:	e3580000 	cmp	r8, #0
    8f04:	e5843004 	str	r3, [r4, #4]
    8f08:	0a000003 	beq	8f1c <__libc_start_main+0x154>
    8f0c:	e3a01000 	mov	r1, #0
    8f10:	e1a00008 	mov	r0, r8
    8f14:	e1a02001 	mov	r2, r1
    8f18:	eb001783 	bl	ed2c <__cxa_atexit>
    8f1c:	e59f3194 	ldr	r3, [pc, #404]	; 90b8 <__libc_start_main+0x2f0>
    8f20:	e59d0004 	ldr	r0, [sp, #4]
    8f24:	e5932000 	ldr	r2, [r3]
    8f28:	e59d1008 	ldr	r1, [sp, #8]
    8f2c:	eb00676b 	bl	22ce0 <__libc_init_first>
    8f30:	e35a0000 	cmp	sl, #0
    8f34:	0a000003 	beq	8f48 <__libc_start_main+0x180>
    8f38:	e3a01000 	mov	r1, #0
    8f3c:	e1a0000a 	mov	r0, sl
    8f40:	e1a02001 	mov	r2, r1
    8f44:	eb001778 	bl	ed2c <__cxa_atexit>
    8f48:	e59f318c 	ldr	r3, [pc, #396]	; 90dc <__libc_start_main+0x314>
    8f4c:	e5933000 	ldr	r3, [r3]
    8f50:	e3530000 	cmp	r3, #0
    8f54:	1a00004f 	bne	9098 <__libc_start_main+0x2d0>
    8f58:	e3590000 	cmp	r9, #0
    8f5c:	0a000004 	beq	8f74 <__libc_start_main+0x1ac>
    8f60:	e59f3150 	ldr	r3, [pc, #336]	; 90b8 <__libc_start_main+0x2f0>
    8f64:	e59d0004 	ldr	r0, [sp, #4]
    8f68:	e5932000 	ldr	r2, [r3]
    8f6c:	e59d1008 	ldr	r1, [sp, #8]
    8f70:	e12fff39 	blx	r9
    8f74:	e28d0010 	add	r0, sp, #16
    8f78:	eb001418 	bl	dfe0 <_setjmp>
    8f7c:	e3500000 	cmp	r0, #0
    8f80:	1a00002f 	bne	9044 <__libc_start_main+0x27c>
    8f84:	eb000195 	bl	95e0 <__aeabi_read_tp>
    8f88:	e1a03000 	mov	r3, r0
    8f8c:	e59f2124 	ldr	r2, [pc, #292]	; 90b8 <__libc_start_main+0x2f0>
    8f90:	e510e440 	ldr	lr, [r0, #-1088]	; 0x440
    8f94:	e510c444 	ldr	ip, [r0, #-1092]	; 0x444
    8f98:	e28d4010 	add	r4, sp, #16
    8f9c:	e5034440 	str	r4, [r3, #-1088]	; 0x440
    8fa0:	e99d0003 	ldmib	sp, {r0, r1}
    8fa4:	e5922000 	ldr	r2, [r2]
    8fa8:	e59d300c 	ldr	r3, [sp, #12]
    8fac:	e58de118 	str	lr, [sp, #280]	; 0x118
    8fb0:	e58dc11c 	str	ip, [sp, #284]	; 0x11c
    8fb4:	e12fff33 	blx	r3
    8fb8:	eb0016c9 	bl	eae4 <exit>
    8fbc:	eb006704 	bl	22bd4 <_dl_discover_osversion>
    8fc0:	e3500000 	cmp	r0, #0
    8fc4:	ba000035 	blt	90a0 <__libc_start_main+0x2d8>
    8fc8:	e59f3110 	ldr	r3, [pc, #272]	; 90e0 <__libc_start_main+0x318>
    8fcc:	e5933000 	ldr	r3, [r3]
    8fd0:	e3530000 	cmp	r3, #0
    8fd4:	1a000033 	bne	90a8 <__libc_start_main+0x2e0>
    8fd8:	e59f3100 	ldr	r3, [pc, #256]	; 90e0 <__libc_start_main+0x318>
    8fdc:	e5830000 	str	r0, [r3]
    8fe0:	e59f30fc 	ldr	r3, [pc, #252]	; 90e4 <__libc_start_main+0x31c>
    8fe4:	e1500003 	cmp	r0, r3
    8fe8:	caffff9a 	bgt	8e58 <__libc_start_main+0x90>
    8fec:	e59f00f4 	ldr	r0, [pc, #244]	; 90e8 <__libc_start_main+0x320>
    8ff0:	eb001c0e 	bl	10030 <__libc_fatal>
    8ff4:	e59f20f0 	ldr	r2, [pc, #240]	; 90ec <__libc_start_main+0x324>
    8ff8:	e3520000 	cmp	r2, #0
    8ffc:	0affff91 	beq	8e48 <__libc_start_main+0x80>
    9000:	e1d212ba 	ldrh	r1, [r2, #42]	; 0x2a
    9004:	e3510020 	cmp	r1, #32
    9008:	0a000004 	beq	9020 <__libc_start_main+0x258>
    900c:	e59f00dc 	ldr	r0, [pc, #220]	; 90f0 <__libc_start_main+0x328>
    9010:	e59f10dc 	ldr	r1, [pc, #220]	; 90f4 <__libc_start_main+0x32c>
    9014:	e3a020ae 	mov	r2, #174	; 0xae
    9018:	e59f30d8 	ldr	r3, [pc, #216]	; 90f8 <__libc_start_main+0x330>
    901c:	eb0001d9 	bl	9788 <__assert_fail>
    9020:	e592c01c 	ldr	ip, [r2, #28]
    9024:	e1d202bc 	ldrh	r0, [r2, #44]	; 0x2c
    9028:	e59f10cc 	ldr	r1, [pc, #204]	; 90fc <__libc_start_main+0x334>
    902c:	e08c2002 	add	r2, ip, r2
    9030:	e5832000 	str	r2, [r3]
    9034:	e5810000 	str	r0, [r1]
    9038:	eaffff82 	b	8e48 <__libc_start_main+0x80>
    903c:	e59f00bc 	ldr	r0, [pc, #188]	; 9100 <__libc_start_main+0x338>
    9040:	eb001bfa 	bl	10030 <__libc_fatal>
    9044:	e1a00000 	nop			; (mov r0, r0)
    9048:	e59f60b4 	ldr	r6, [pc, #180]	; 9104 <__libc_start_main+0x33c>
    904c:	e5965000 	ldr	r5, [r6]
    9050:	e1a02006 	mov	r2, r6
    9054:	e2451001 	sub	r1, r5, #1
    9058:	e1a04005 	mov	r4, r5
    905c:	e5923000 	ldr	r3, [r2]
    9060:	e1530004 	cmp	r3, r4
    9064:	1a000005 	bne	9080 <__libc_start_main+0x2b8>
    9068:	e1a00004 	mov	r0, r4
    906c:	e3e03a0f 	mvn	r3, #61440	; 0xf000
    9070:	e1a0e00f 	mov	lr, pc
    9074:	e243f03f 	sub	pc, r3, #63	; 0x3f
    9078:	3afffff7 	bcc	905c <__libc_start_main+0x294>
    907c:	e1a03004 	mov	r3, r4
    9080:	e1550003 	cmp	r5, r3
    9084:	1afffff0 	bne	904c <__libc_start_main+0x284>
    9088:	e3550001 	cmp	r5, #1
    908c:	e3a00000 	mov	r0, #0
    9090:	0affffc8 	beq	8fb8 <__libc_start_main+0x1f0>
    9094:	eb0059b9 	bl	1f780 <__exit_thread>
    9098:	eb000059 	bl	9204 <__libc_check_standard_fds>
    909c:	eaffffad 	b	8f58 <__libc_start_main+0x190>
    90a0:	e59f0060 	ldr	r0, [pc, #96]	; 9108 <__libc_start_main+0x340>
    90a4:	eb001be1 	bl	10030 <__libc_fatal>
    90a8:	e1530000 	cmp	r3, r0
    90ac:	9affffcb 	bls	8fe0 <__libc_start_main+0x218>
    90b0:	eaffffc8 	b	8fd8 <__libc_start_main+0x210>
    90b4:	00000000 	.word	0x00000000
    90b8:	0008a46c 	.word	0x0008a46c
    90bc:	00089c90 	.word	0x00089c90
    90c0:	00088fd8 	.word	0x00088fd8
    90c4:	0008af1c 	.word	0x0008af1c
    90c8:	00008158 	.word	0x00008158
    90cc:	00008158 	.word	0x00008158
    90d0:	0008a9c0 	.word	0x0008a9c0
    90d4:	00088f94 	.word	0x00088f94
    90d8:	00088f8c 	.word	0x00088f8c
    90dc:	00088fdc 	.word	0x00088fdc
    90e0:	0008af4c 	.word	0x0008af4c
    90e4:	0002061f 	.word	0x0002061f
    90e8:	00069c94 	.word	0x00069c94
    90ec:	00008000 	.word	0x00008000
    90f0:	00069c54 	.word	0x00069c54
    90f4:	00069c84 	.word	0x00069c84
    90f8:	00069cfc 	.word	0x00069cfc
    90fc:	0008af3c 	.word	0x0008af3c
    9100:	00069cd4 	.word	0x00069cd4
    9104:	00000000 	.word	0x00000000
    9108:	00069cac 	.word	0x00069cac

0000910c <check_one_fd>:
    910c:	e92d40f0 	push	{r4, r5, r6, r7, lr}
    9110:	e1a07001 	mov	r7, r1
    9114:	e24dd06c 	sub	sp, sp, #108	; 0x6c
    9118:	e3a01001 	mov	r1, #1
    911c:	e1a06000 	mov	r6, r0
    9120:	eb005a37 	bl	1fa04 <__libc_fcntl>
    9124:	e3700001 	cmn	r0, #1
    9128:	0a000001 	beq	9134 <check_one_fd+0x28>
    912c:	e28dd06c 	add	sp, sp, #108	; 0x6c
    9130:	e8bd80f0 	pop	{r4, r5, r6, r7, pc}
    9134:	e59f30b0 	ldr	r3, [pc, #176]	; 91ec <check_one_fd+0xe0>
    9138:	eb000128 	bl	95e0 <__aeabi_read_tp>
    913c:	e79f3003 	ldr	r3, [pc, r3]
    9140:	e7903003 	ldr	r3, [r0, r3]
    9144:	e3530009 	cmp	r3, #9
    9148:	1afffff7 	bne	912c <check_one_fd+0x20>
    914c:	e2073003 	and	r3, r7, #3
    9150:	e3530001 	cmp	r3, #1
    9154:	e1a01007 	mov	r1, r7
    9158:	059f4090 	ldreq	r4, [pc, #144]	; 91f0 <check_one_fd+0xe4>
    915c:	03a05000 	moveq	r5, #0
    9160:	059f008c 	ldreq	r0, [pc, #140]	; 91f4 <check_one_fd+0xe8>
    9164:	159f008c 	ldrne	r0, [pc, #140]	; 91f8 <check_one_fd+0xec>
    9168:	159f408c 	ldrne	r4, [pc, #140]	; 91fc <check_one_fd+0xf0>
    916c:	13a05000 	movne	r5, #0
    9170:	e3a02000 	mov	r2, #0
    9174:	e3a07005 	mov	r7, #5
    9178:	ef000000 	svc	0x00000000
    917c:	e3700a01 	cmn	r0, #4096	; 0x1000
    9180:	e1a03000 	mov	r3, r0
    9184:	8a000011 	bhi	91d0 <check_one_fd+0xc4>
    9188:	e1560003 	cmp	r6, r3
    918c:	1a00000e 	bne	91cc <check_one_fd+0xc0>
    9190:	e1a01006 	mov	r1, r6
    9194:	e3a00003 	mov	r0, #3
    9198:	e1a0200d 	mov	r2, sp
    919c:	eb00597f 	bl	1f7a0 <___fxstat64>
    91a0:	e3500000 	cmp	r0, #0
    91a4:	1a000008 	bne	91cc <check_one_fd+0xc0>
    91a8:	e59d3010 	ldr	r3, [sp, #16]
    91ac:	e2033a0f 	and	r3, r3, #61440	; 0xf000
    91b0:	e3530a02 	cmp	r3, #8192	; 0x2000
    91b4:	1a000004 	bne	91cc <check_one_fd+0xc0>
    91b8:	e28d3020 	add	r3, sp, #32
    91bc:	e893000c 	ldm	r3, {r2, r3}
    91c0:	e1530005 	cmp	r3, r5
    91c4:	01520004 	cmpeq	r2, r4
    91c8:	0affffd7 	beq	912c <check_one_fd+0x20>
    91cc:	eafffffe 	b	91cc <check_one_fd+0xc0>
    91d0:	e59f2028 	ldr	r2, [pc, #40]	; 9200 <check_one_fd+0xf4>
    91d4:	e2601000 	rsb	r1, r0, #0
    91d8:	e79f2002 	ldr	r2, [pc, r2]
    91dc:	eb0000ff 	bl	95e0 <__aeabi_read_tp>
    91e0:	e3e03000 	mvn	r3, #0
    91e4:	e7801002 	str	r1, [r0, r2]
    91e8:	eaffffe6 	b	9188 <check_one_fd+0x7c>
    91ec:	0007fefc 	.word	0x0007fefc
    91f0:	00000107 	.word	0x00000107
    91f4:	00069d10 	.word	0x00069d10
    91f8:	00069d1c 	.word	0x00069d1c
    91fc:	00000103 	.word	0x00000103
    9200:	0007fe60 	.word	0x0007fe60

00009204 <__libc_check_standard_fds>:
    9204:	e92d4008 	push	{r3, lr}
    9208:	e3a00000 	mov	r0, #0
    920c:	e59f101c 	ldr	r1, [pc, #28]	; 9230 <__libc_check_standard_fds+0x2c>
    9210:	ebffffbd 	bl	910c <check_one_fd>
    9214:	e3a00001 	mov	r0, #1
    9218:	e3a01902 	mov	r1, #32768	; 0x8000
    921c:	ebffffba 	bl	910c <check_one_fd>
    9220:	e8bd4008 	pop	{r3, lr}
    9224:	e3a00002 	mov	r0, #2
    9228:	e3a01902 	mov	r1, #32768	; 0x8000
    922c:	eaffffb6 	b	910c <check_one_fd>
    9230:	00008001 	.word	0x00008001

00009234 <__libc_setup_tls>:
    9234:	e92d4ff0 	push	{r4, r5, r6, r7, r8, r9, sl, fp, lr}
    9238:	e59f31e0 	ldr	r3, [pc, #480]	; 9420 <__libc_setup_tls+0x1ec>
    923c:	e24dd00c 	sub	sp, sp, #12
    9240:	e5933000 	ldr	r3, [r3]
    9244:	e1a04001 	mov	r4, r1
    9248:	e3530000 	cmp	r3, #0
    924c:	0a00006d 	beq	9408 <__libc_setup_tls+0x1d4>
    9250:	e59f21cc 	ldr	r2, [pc, #460]	; 9424 <__libc_setup_tls+0x1f0>
    9254:	e592c000 	ldr	ip, [r2]
    9258:	e083c28c 	add	ip, r3, ip, lsl #5
    925c:	e15c0003 	cmp	ip, r3
    9260:	8a000003 	bhi	9274 <__libc_setup_tls+0x40>
    9264:	ea000039 	b	9350 <__libc_setup_tls+0x11c>
    9268:	e2833020 	add	r3, r3, #32
    926c:	e15c0003 	cmp	ip, r3
    9270:	9a000036 	bls	9350 <__libc_setup_tls+0x11c>
    9274:	e5932000 	ldr	r2, [r3]
    9278:	e3520007 	cmp	r2, #7
    927c:	1afffff9 	bne	9268 <__libc_setup_tls+0x34>
    9280:	e593501c 	ldr	r5, [r3, #28]
    9284:	e5932010 	ldr	r2, [r3, #16]
    9288:	e1540005 	cmp	r4, r5
    928c:	31a04005 	movcc	r4, r5
    9290:	e3550000 	cmp	r5, #0
    9294:	e593b014 	ldr	fp, [r3, #20]
    9298:	e58d2004 	str	r2, [sp, #4]
    929c:	e593a008 	ldr	sl, [r3, #8]
    92a0:	0a00002d 	beq	935c <__libc_setup_tls+0x128>
    92a4:	e2453001 	sub	r3, r5, #1
    92a8:	e0830000 	add	r0, r3, r0
    92ac:	e1a01005 	mov	r1, r5
    92b0:	eb0172da 	bl	65e20 <__aeabi_uidiv>
    92b4:	e1a02005 	mov	r2, r5
    92b8:	e59f9168 	ldr	r9, [pc, #360]	; 9428 <__libc_setup_tls+0x1f4>
    92bc:	e0060092 	mul	r6, r2, r0
    92c0:	e5990000 	ldr	r0, [r9]
    92c4:	e59f7160 	ldr	r7, [pc, #352]	; 942c <__libc_setup_tls+0x1f8>
    92c8:	e2800d13 	add	r0, r0, #1216	; 0x4c0
    92cc:	e080000b 	add	r0, r0, fp
    92d0:	e0800004 	add	r0, r0, r4
    92d4:	e0800006 	add	r0, r0, r6
    92d8:	eb005bf0 	bl	202a0 <__sbrk>
    92dc:	e3a0e001 	mov	lr, #1
    92e0:	e3a0203e 	mov	r2, #62	; 0x3e
    92e4:	e2800d13 	add	r0, r0, #1216	; 0x4c0
    92e8:	e244c001 	sub	ip, r4, #1
    92ec:	e59f113c 	ldr	r1, [pc, #316]	; 9430 <__libc_setup_tls+0x1fc>
    92f0:	e08cc000 	add	ip, ip, r0
    92f4:	e2640000 	rsb	r0, r4, #0
    92f8:	e00cc000 	and	ip, ip, r0
    92fc:	e5918000 	ldr	r8, [r1]
    9300:	e08c1006 	add	r1, ip, r6
    9304:	e5871010 	str	r1, [r7, #16]
    9308:	e5872000 	str	r2, [r7]
    930c:	e5c7e014 	strb	lr, [r7, #20]
    9310:	e588623c 	str	r6, [r8, #572]	; 0x23c
    9314:	e1a00001 	mov	r0, r1
    9318:	e59d2004 	ldr	r2, [sp, #4]
    931c:	e1a0100a 	mov	r1, sl
    9320:	e58dc000 	str	ip, [sp]
    9324:	eb005459 	bl	1e490 <memcpy>
    9328:	e59dc000 	ldr	ip, [sp]
    932c:	e2877008 	add	r7, r7, #8
    9330:	e58c7000 	str	r7, [ip]
    9334:	e1a0000c 	mov	r0, ip
    9338:	e59f70f4 	ldr	r7, [pc, #244]	; 9434 <__libc_setup_tls+0x200>
    933c:	ef000000 	svc	0x00000000
    9340:	e3700a01 	cmn	r0, #4096	; 0x1000
    9344:	9a000007 	bls	9368 <__libc_setup_tls+0x134>
    9348:	e59f00e8 	ldr	r0, [pc, #232]	; 9438 <__libc_setup_tls+0x204>
    934c:	eb001b37 	bl	10030 <__libc_fatal>
    9350:	e3a0a000 	mov	sl, #0
    9354:	e1a0b00a 	mov	fp, sl
    9358:	e58da004 	str	sl, [sp, #4]
    935c:	e3a05000 	mov	r5, #0
    9360:	e3a02001 	mov	r2, #1
    9364:	eaffffd3 	b	92b8 <__libc_setup_tls+0x84>
    9368:	e3a01001 	mov	r1, #1
    936c:	e3a0c040 	mov	ip, #64	; 0x40
    9370:	e59f20c4 	ldr	r2, [pc, #196]	; 943c <__libc_setup_tls+0x208>
    9374:	e59f00c4 	ldr	r0, [pc, #196]	; 9440 <__libc_setup_tls+0x20c>
    9378:	e59fe0c4 	ldr	lr, [pc, #196]	; 9444 <__libc_setup_tls+0x210>
    937c:	e59d3004 	ldr	r3, [sp, #4]
    9380:	e3550000 	cmp	r5, #0
    9384:	e5885234 	str	r5, [r8, #564]	; 0x234
    9388:	e5802000 	str	r2, [r0]
    938c:	e588b230 	str	fp, [r8, #560]	; 0x230
    9390:	e588a228 	str	sl, [r8, #552]	; 0x228
    9394:	e588322c 	str	r3, [r8, #556]	; 0x22c
    9398:	e5881240 	str	r1, [r8, #576]	; 0x240
    939c:	e58e1000 	str	r1, [lr]
    93a0:	e582c000 	str	ip, [r2]
    93a4:	e5828014 	str	r8, [r2, #20]
    93a8:	01a0000b 	moveq	r0, fp
    93ac:	01a05001 	moveq	r5, r1
    93b0:	0a000003 	beq	93c4 <__libc_setup_tls+0x190>
    93b4:	e08b0005 	add	r0, fp, r5
    93b8:	e2400001 	sub	r0, r0, #1
    93bc:	e1a01005 	mov	r1, r5
    93c0:	eb017296 	bl	65e20 <__aeabi_uidiv>
    93c4:	e3540010 	cmp	r4, #16
    93c8:	33a04010 	movcc	r4, #16
    93cc:	e3a01001 	mov	r1, #1
    93d0:	e0266095 	mla	r6, r5, r0, r6
    93d4:	e5990000 	ldr	r0, [r9]
    93d8:	e59fe068 	ldr	lr, [pc, #104]	; 9448 <__libc_setup_tls+0x214>
    93dc:	e280000f 	add	r0, r0, #15
    93e0:	e59fc064 	ldr	ip, [pc, #100]	; 944c <__libc_setup_tls+0x218>
    93e4:	e0800006 	add	r0, r0, r6
    93e8:	e59f2060 	ldr	r2, [pc, #96]	; 9450 <__libc_setup_tls+0x21c>
    93ec:	e3c0000f 	bic	r0, r0, #15
    93f0:	e58e4000 	str	r4, [lr]
    93f4:	e58c6000 	str	r6, [ip]
    93f8:	e5890000 	str	r0, [r9]
    93fc:	e5821000 	str	r1, [r2]
    9400:	e28dd00c 	add	sp, sp, #12
    9404:	e8bd8ff0 	pop	{r4, r5, r6, r7, r8, r9, sl, fp, pc}
    9408:	e1a0a003 	mov	sl, r3
    940c:	e58d3004 	str	r3, [sp, #4]
    9410:	e1a0b003 	mov	fp, r3
    9414:	e3a05000 	mov	r5, #0
    9418:	e3a02001 	mov	r2, #1
    941c:	eaffffa5 	b	92b8 <__libc_setup_tls+0x84>
    9420:	0008af1c 	.word	0x0008af1c
    9424:	0008af3c 	.word	0x0008af3c
    9428:	00089078 	.word	0x00089078
    942c:	0008acc4 	.word	0x0008acc4
    9430:	00089c28 	.word	0x00089c28
    9434:	000f0005 	.word	0x000f0005
    9438:	00069d28 	.word	0x00069d28
    943c:	00089efc 	.word	0x00089efc
    9440:	0008aec4 	.word	0x0008aec4
    9444:	0008acc0 	.word	0x0008acc0
    9448:	0008acbc 	.word	0x0008acbc
    944c:	0008acb8 	.word	0x0008acb8
    9450:	0008aed0 	.word	0x0008aed0

00009454 <_dl_tls_setup>:
    9454:	e92d43f0 	push	{r4, r5, r6, r7, r8, r9, lr}
    9458:	e3a03001 	mov	r3, #1
    945c:	e3a08040 	mov	r8, #64	; 0x40
    9460:	e3a00000 	mov	r0, #0
    9464:	e3a0e010 	mov	lr, #16
    9468:	e59f1040 	ldr	r1, [pc, #64]	; 94b0 <_dl_tls_setup+0x5c>
    946c:	e59f2040 	ldr	r2, [pc, #64]	; 94b4 <_dl_tls_setup+0x60>
    9470:	e5919000 	ldr	r9, [r1]
    9474:	e59f703c 	ldr	r7, [pc, #60]	; 94b8 <_dl_tls_setup+0x64>
    9478:	e59f603c 	ldr	r6, [pc, #60]	; 94bc <_dl_tls_setup+0x68>
    947c:	e59f503c 	ldr	r5, [pc, #60]	; 94c0 <_dl_tls_setup+0x6c>
    9480:	e59f403c 	ldr	r4, [pc, #60]	; 94c4 <_dl_tls_setup+0x70>
    9484:	e59fc03c 	ldr	ip, [pc, #60]	; 94c8 <_dl_tls_setup+0x74>
    9488:	e289900f 	add	r9, r9, #15
    948c:	e3c9900f 	bic	r9, r9, #15
    9490:	e5819000 	str	r9, [r1]
    9494:	e5828000 	str	r8, [r2]
    9498:	e5872000 	str	r2, [r7]
    949c:	e5863000 	str	r3, [r6]
    94a0:	e5853000 	str	r3, [r5]
    94a4:	e5840000 	str	r0, [r4]
    94a8:	e58ce000 	str	lr, [ip]
    94ac:	e8bd83f0 	pop	{r4, r5, r6, r7, r8, r9, pc}
    94b0:	00089078 	.word	0x00089078
    94b4:	00089efc 	.word	0x00089efc
    94b8:	0008aec4 	.word	0x0008aec4
    94bc:	0008acc0 	.word	0x0008acc0
    94c0:	0008aed0 	.word	0x0008aed0
    94c4:	0008acb8 	.word	0x0008acb8
    94c8:	0008acbc 	.word	0x0008acbc

000094cc <__pthread_initialize_minimal>:
    94cc:	e3a00008 	mov	r0, #8
    94d0:	e3a01010 	mov	r1, #16
    94d4:	eaffff56 	b	9234 <__libc_setup_tls>

000094d8 <__tls_get_addr>:
    94d8:	e1a03000 	mov	r3, r0
    94dc:	e52de004 	push	{lr}		; (str lr, [sp, #-4]!)
    94e0:	eb00003e 	bl	95e0 <__aeabi_read_tp>
    94e4:	e5902000 	ldr	r2, [r0]
    94e8:	e5933004 	ldr	r3, [r3, #4]
    94ec:	e5920008 	ldr	r0, [r2, #8]
    94f0:	e0800003 	add	r0, r0, r3
    94f4:	e49df004 	pop	{pc}		; (ldr pc, [sp], #4)

000094f8 <__libc_csu_init>:
    94f8:	e92d43f8 	push	{r3, r4, r5, r6, r7, r8, r9, lr}
    94fc:	e59f8084 	ldr	r8, [pc, #132]	; 9588 <__libc_csu_init+0x90>
    9500:	e59f9084 	ldr	r9, [pc, #132]	; 958c <__libc_csu_init+0x94>
    9504:	e1a05000 	mov	r5, r0
    9508:	e0689009 	rsb	r9, r8, r9
    950c:	e1b09149 	asrs	r9, r9, #2
    9510:	e1a06001 	mov	r6, r1
    9514:	e1a07002 	mov	r7, r2
    9518:	13a04000 	movne	r4, #0
    951c:	12488004 	subne	r8, r8, #4
    9520:	0a000007 	beq	9544 <__libc_csu_init+0x4c>
    9524:	e2844001 	add	r4, r4, #1
    9528:	e5b83004 	ldr	r3, [r8, #4]!
    952c:	e1a00005 	mov	r0, r5
    9530:	e1a01006 	mov	r1, r6
    9534:	e1a02007 	mov	r2, r7
    9538:	e12fff33 	blx	r3
    953c:	e1540009 	cmp	r4, r9
    9540:	1afffff7 	bne	9524 <__libc_csu_init+0x2c>
    9544:	e59f9044 	ldr	r9, [pc, #68]	; 9590 <__libc_csu_init+0x98>
    9548:	e59f8044 	ldr	r8, [pc, #68]	; 9594 <__libc_csu_init+0x9c>
    954c:	ebfffb01 	bl	8158 <__rel_iplt_end>
    9550:	e0689009 	rsb	r9, r8, r9
    9554:	e1b09149 	asrs	r9, r9, #2
    9558:	08bd83f8 	popeq	{r3, r4, r5, r6, r7, r8, r9, pc}
    955c:	e3a04000 	mov	r4, #0
    9560:	e2488004 	sub	r8, r8, #4
    9564:	e2844001 	add	r4, r4, #1
    9568:	e5b83004 	ldr	r3, [r8, #4]!
    956c:	e1a00005 	mov	r0, r5
    9570:	e1a01006 	mov	r1, r6
    9574:	e1a02007 	mov	r2, r7
    9578:	e12fff33 	blx	r3
    957c:	e1540009 	cmp	r4, r9
    9580:	1afffff7 	bne	9564 <__libc_csu_init+0x6c>
    9584:	e8bd83f8 	pop	{r3, r4, r5, r6, r7, r8, r9, pc}
    9588:	00088f7c 	.word	0x00088f7c
    958c:	00088f7c 	.word	0x00088f7c
    9590:	00088f80 	.word	0x00088f80
    9594:	00088f7c 	.word	0x00088f7c

00009598 <__libc_csu_fini>:
    9598:	e92d4038 	push	{r3, r4, r5, lr}
    959c:	e59f202c 	ldr	r2, [pc, #44]	; 95d0 <__libc_csu_fini+0x38>
    95a0:	e59f302c 	ldr	r3, [pc, #44]	; 95d4 <__libc_csu_fini+0x3c>
    95a4:	e0623003 	rsb	r3, r2, r3
    95a8:	e1b03143 	asrs	r3, r3, #2
    95ac:	11a04003 	movne	r4, r3
    95b0:	10825103 	addne	r5, r2, r3, lsl #2
    95b4:	0a000003 	beq	95c8 <__libc_csu_fini+0x30>
    95b8:	e5353004 	ldr	r3, [r5, #-4]!
    95bc:	e12fff33 	blx	r3
    95c0:	e2544001 	subs	r4, r4, #1
    95c4:	1afffffb 	bne	95b8 <__libc_csu_fini+0x20>
    95c8:	e8bd4038 	pop	{r3, r4, r5, lr}
    95cc:	ea01819d 	b	69c48 <_fini>
    95d0:	00088f80 	.word	0x00088f80
    95d4:	00088f88 	.word	0x00088f88
	...

000095e0 <__aeabi_read_tp>:
    95e0:	e3e00a0f 	mvn	r0, #61440	; 0xf000
    95e4:	e240f01f 	sub	pc, r0, #31
    95e8:	e1a00000 	nop			; (mov r0, r0)
    95ec:	e1a00000 	nop			; (mov r0, r0)

000095f0 <__assert_fail_base>:
    95f0:	e92d4080 	push	{r7, lr}
    95f4:	e59fc168 	ldr	ip, [pc, #360]	; 9764 <__assert_fail_base+0x174>
    95f8:	e24dd020 	sub	sp, sp, #32
    95fc:	e35c0000 	cmp	ip, #0
    9600:	e1a05000 	mov	r5, r0
    9604:	e1a06001 	mov	r6, r1
    9608:	e1a07002 	mov	r7, r2
    960c:	e1a08003 	mov	r8, r3
    9610:	e59d4028 	ldr	r4, [sp, #40]	; 0x28
    9614:	0a000002 	beq	9624 <__assert_fail_base+0x34>
    9618:	e3a00001 	mov	r0, #1
    961c:	e3a01000 	mov	r1, #0
    9620:	e1a00000 	nop			; (mov r0, r0)
    9624:	e59f313c 	ldr	r3, [pc, #316]	; 9768 <__assert_fail_base+0x178>
    9628:	e59fc13c 	ldr	ip, [pc, #316]	; 976c <__assert_fail_base+0x17c>
    962c:	e5932000 	ldr	r2, [r3]
    9630:	e59fe138 	ldr	lr, [pc, #312]	; 9770 <__assert_fail_base+0x180>
    9634:	e5d23000 	ldrb	r3, [r2]
    9638:	e28d001c 	add	r0, sp, #28
    963c:	e3530000 	cmp	r3, #0
    9640:	01a0300e 	moveq	r3, lr
    9644:	11a0300c 	movne	r3, ip
    9648:	e3540000 	cmp	r4, #0
    964c:	01a0400e 	moveq	r4, lr
    9650:	01a0c004 	moveq	ip, r4
    9654:	e58d0014 	str	r0, [sp, #20]
    9658:	e88d0180 	stm	sp, {r7, r8}
    965c:	e58d4008 	str	r4, [sp, #8]
    9660:	e58dc00c 	str	ip, [sp, #12]
    9664:	e58d6010 	str	r6, [sp, #16]
    9668:	e1a01005 	mov	r1, r5
    966c:	e28d0018 	add	r0, sp, #24
    9670:	eb001789 	bl	f49c <___asprintf>
    9674:	e3500000 	cmp	r0, #0
    9678:	ba000034 	blt	9750 <__assert_fail_base+0x160>
    967c:	e59f10f0 	ldr	r1, [pc, #240]	; 9774 <__assert_fail_base+0x184>
    9680:	e59d2018 	ldr	r2, [sp, #24]
    9684:	e3a00000 	mov	r0, #0
    9688:	eb00178f 	bl	f4cc <__fxprintf>
    968c:	e59f30e4 	ldr	r3, [pc, #228]	; 9778 <__assert_fail_base+0x188>
    9690:	e5930000 	ldr	r0, [r3]
    9694:	eb001893 	bl	f8e8 <_IO_fflush>
    9698:	e3e02000 	mvn	r2, #0
    969c:	e3a00000 	mov	r0, #0
    96a0:	e59f30d4 	ldr	r3, [pc, #212]	; 977c <__assert_fail_base+0x18c>
    96a4:	e59dc01c 	ldr	ip, [sp, #28]
    96a8:	e5933000 	ldr	r3, [r3]
    96ac:	e58d2000 	str	r2, [sp]
    96b0:	e083c00c 	add	ip, r3, ip
    96b4:	e2633000 	rsb	r3, r3, #0
    96b8:	e00cc003 	and	ip, ip, r3
    96bc:	e1a0100c 	mov	r1, ip
    96c0:	e58d0004 	str	r0, [sp, #4]
    96c4:	e3a02003 	mov	r2, #3
    96c8:	e3a03022 	mov	r3, #34	; 0x22
    96cc:	e58dc01c 	str	ip, [sp, #28]
    96d0:	eb005b2e 	bl	20390 <__mmap>
    96d4:	e3700001 	cmn	r0, #1
    96d8:	e1a06000 	mov	r6, r0
    96dc:	0a000018 	beq	9744 <__assert_fail_base+0x154>
    96e0:	e59d301c 	ldr	r3, [sp, #28]
    96e4:	e59d1018 	ldr	r1, [sp, #24]
    96e8:	e4803004 	str	r3, [r0], #4
    96ec:	eb004e55 	bl	1d048 <strcpy>
    96f0:	e59f7088 	ldr	r7, [pc, #136]	; 9780 <__assert_fail_base+0x190>
    96f4:	e5975000 	ldr	r5, [r7]
    96f8:	e1a01006 	mov	r1, r6
    96fc:	e1a04005 	mov	r4, r5
    9700:	e59f2078 	ldr	r2, [pc, #120]	; 9780 <__assert_fail_base+0x190>
    9704:	e5923000 	ldr	r3, [r2]
    9708:	e1530004 	cmp	r3, r4
    970c:	1a000005 	bne	9728 <__assert_fail_base+0x138>
    9710:	e1a00004 	mov	r0, r4
    9714:	e3e03a0f 	mvn	r3, #61440	; 0xf000
    9718:	e1a0e00f 	mov	lr, pc
    971c:	e243f03f 	sub	pc, r3, #63	; 0x3f
    9720:	3afffff7 	bcc	9704 <__assert_fail_base+0x114>
    9724:	e1a03004 	mov	r3, r4
    9728:	e1550003 	cmp	r5, r3
    972c:	1afffff0 	bne	96f4 <__assert_fail_base+0x104>
    9730:	e3550000 	cmp	r5, #0
    9734:	0a000002 	beq	9744 <__assert_fail_base+0x154>
    9738:	e1a00005 	mov	r0, r5
    973c:	e5951000 	ldr	r1, [r5]
    9740:	eb005b3e 	bl	20440 <__munmap>
    9744:	e59d0018 	ldr	r0, [sp, #24]
    9748:	eb004717 	bl	1b3ac <__cfree>
    974c:	eb001227 	bl	dff0 <abort>
    9750:	e59f102c 	ldr	r1, [pc, #44]	; 9784 <__assert_fail_base+0x194>
    9754:	e3a02012 	mov	r2, #18
    9758:	e3a00002 	mov	r0, #2
    975c:	eb005873 	bl	1f930 <__libc_write>
    9760:	eafffff9 	b	974c <__assert_fail_base+0x15c>
    9764:	00000000 	.word	0x00000000
    9768:	00089960 	.word	0x00089960
    976c:	0007c968 	.word	0x0007c968
    9770:	0007d170 	.word	0x0007d170
    9774:	0007f290 	.word	0x0007f290
    9778:	000894b0 	.word	0x000894b0
    977c:	00089968 	.word	0x00089968
    9780:	0008a1b4 	.word	0x0008a1b4
    9784:	00069d64 	.word	0x00069d64

00009788 <__assert_fail>:
    9788:	e92d4080 	push	{r7, lr}
    978c:	e1a06000 	mov	r6, r0
    9790:	e1a07003 	mov	r7, r3
    9794:	e1a05001 	mov	r5, r1
    9798:	e1a04002 	mov	r4, r2
    979c:	e24dd008 	sub	sp, sp, #8
    97a0:	e59f101c 	ldr	r1, [pc, #28]	; 97c4 <__assert_fail+0x3c>
    97a4:	e3a02005 	mov	r2, #5
    97a8:	e59f0018 	ldr	r0, [pc, #24]	; 97c8 <__assert_fail+0x40>
    97ac:	eb000006 	bl	97cc <__dcgettext>
    97b0:	e58d7000 	str	r7, [sp]
    97b4:	e1a01006 	mov	r1, r6
    97b8:	e1a02005 	mov	r2, r5
    97bc:	e1a03004 	mov	r3, r4
    97c0:	ebffff8a 	bl	95f0 <__assert_fail_base>
    97c4:	00069d38 	.word	0x00069d38
    97c8:	000795e8 	.word	0x000795e8

000097cc <__dcgettext>:
    97cc:	e3a03000 	mov	r3, #0
    97d0:	e52de004 	push	{lr}		; (str lr, [sp, #-4]!)
    97d4:	e24dd00c 	sub	sp, sp, #12
    97d8:	e58d2004 	str	r2, [sp, #4]
    97dc:	e58d3000 	str	r3, [sp]
    97e0:	e1a02003 	mov	r2, r3
    97e4:	eb00037a 	bl	a5d4 <__dcigettext>
    97e8:	e28dd00c 	add	sp, sp, #12
    97ec:	e49df004 	pop	{pc}		; (ldr pc, [sp], #4)

000097f0 <plural_eval>:
    97f0:	e92d40f8 	push	{r3, r4, r5, r6, r7, lr}
    97f4:	e1a04000 	mov	r4, r0
    97f8:	e1a05001 	mov	r5, r1
    97fc:	e5943000 	ldr	r3, [r4]
    9800:	e3530003 	cmp	r3, #3
    9804:	979ff103 	ldrls	pc, [pc, r3, lsl #2]
    9808:	ea000043 	b	991c <plural_eval+0x12c>
    980c:	00009884 	.word	0x00009884
    9810:	0000986c 	.word	0x0000986c
    9814:	0000983c 	.word	0x0000983c
    9818:	0000981c 	.word	0x0000981c
    981c:	e5940008 	ldr	r0, [r4, #8]
    9820:	e1a01005 	mov	r1, r5
    9824:	ebfffff1 	bl	97f0 <plural_eval>
    9828:	e3500000 	cmp	r0, #0
    982c:	13a00003 	movne	r0, #3
    9830:	03a00004 	moveq	r0, #4
    9834:	e7944100 	ldr	r4, [r4, r0, lsl #2]
    9838:	eaffffef 	b	97fc <plural_eval+0xc>
    983c:	e5940008 	ldr	r0, [r4, #8]
    9840:	e1a01005 	mov	r1, r5
    9844:	ebffffe9 	bl	97f0 <plural_eval>
    9848:	e5946004 	ldr	r6, [r4, #4]
    984c:	e1a07000 	mov	r7, r0
    9850:	e356000f 	cmp	r6, #15
    9854:	0a000013 	beq	98a8 <plural_eval+0xb8>
    9858:	e356000e 	cmp	r6, #14
    985c:	1a00001b 	bne	98d0 <plural_eval+0xe0>
    9860:	e3500000 	cmp	r0, #0
    9864:	1a000013 	bne	98b8 <plural_eval+0xc8>
    9868:	e8bd80f8 	pop	{r3, r4, r5, r6, r7, pc}
    986c:	e5940008 	ldr	r0, [r4, #8]
    9870:	e1a01005 	mov	r1, r5
    9874:	ebffffdd 	bl	97f0 <plural_eval>
    9878:	e16f0f10 	clz	r0, r0
    987c:	e1a002a0 	lsr	r0, r0, #5
    9880:	e8bd80f8 	pop	{r3, r4, r5, r6, r7, pc}
    9884:	e5943004 	ldr	r3, [r4, #4]
    9888:	e3530000 	cmp	r3, #0
    988c:	0a000003 	beq	98a0 <plural_eval+0xb0>
    9890:	e3530001 	cmp	r3, #1
    9894:	1a000020 	bne	991c <plural_eval+0x12c>
    9898:	e5940008 	ldr	r0, [r4, #8]
    989c:	e8bd80f8 	pop	{r3, r4, r5, r6, r7, pc}
    98a0:	e1a00005 	mov	r0, r5
    98a4:	e8bd80f8 	pop	{r3, r4, r5, r6, r7, pc}
    98a8:	e3500000 	cmp	r0, #0
    98ac:	0a000001 	beq	98b8 <plural_eval+0xc8>
    98b0:	e3a00001 	mov	r0, #1
    98b4:	e8bd80f8 	pop	{r3, r4, r5, r6, r7, pc}
    98b8:	e594000c 	ldr	r0, [r4, #12]
    98bc:	e1a01005 	mov	r1, r5
    98c0:	ebffffca 	bl	97f0 <plural_eval>
    98c4:	e2900000 	adds	r0, r0, #0
    98c8:	13a00001 	movne	r0, #1
    98cc:	e8bd80f8 	pop	{r3, r4, r5, r6, r7, pc}
    98d0:	e1a01005 	mov	r1, r5
    98d4:	e594000c 	ldr	r0, [r4, #12]
    98d8:	ebffffc4 	bl	97f0 <plural_eval>
    98dc:	e2466003 	sub	r6, r6, #3
    98e0:	e1a01000 	mov	r1, r0
    98e4:	e356000a 	cmp	r6, #10
    98e8:	979ff106 	ldrls	pc, [pc, r6, lsl #2]
    98ec:	ea00000a 	b	991c <plural_eval+0x12c>
    98f0:	000099ac 	.word	0x000099ac
    98f4:	000099a0 	.word	0x000099a0
    98f8:	00009990 	.word	0x00009990
    98fc:	00009988 	.word	0x00009988
    9900:	00009980 	.word	0x00009980
    9904:	00009970 	.word	0x00009970
    9908:	00009960 	.word	0x00009960
    990c:	00009950 	.word	0x00009950
    9910:	00009940 	.word	0x00009940
    9914:	00009930 	.word	0x00009930
    9918:	00009924 	.word	0x00009924
    991c:	e3a00000 	mov	r0, #0
    9920:	e8bd80f8 	pop	{r3, r4, r5, r6, r7, pc}
    9924:	e0570000 	subs	r0, r7, r0
    9928:	13a00001 	movne	r0, #1
    992c:	e8bd80f8 	pop	{r3, r4, r5, r6, r7, pc}
    9930:	e0600007 	rsb	r0, r0, r7
    9934:	e16f0f10 	clz	r0, r0
    9938:	e1a002a0 	lsr	r0, r0, #5
    993c:	e8bd80f8 	pop	{r3, r4, r5, r6, r7, pc}
    9940:	e1570000 	cmp	r7, r0
    9944:	33a00000 	movcc	r0, #0
    9948:	23a00001 	movcs	r0, #1
    994c:	e8bd80f8 	pop	{r3, r4, r5, r6, r7, pc}
    9950:	e1570000 	cmp	r7, r0
    9954:	83a00000 	movhi	r0, #0
    9958:	93a00001 	movls	r0, #1
    995c:	e8bd80f8 	pop	{r3, r4, r5, r6, r7, pc}
    9960:	e1570000 	cmp	r7, r0
    9964:	93a00000 	movls	r0, #0
    9968:	83a00001 	movhi	r0, #1
    996c:	e8bd80f8 	pop	{r3, r4, r5, r6, r7, pc}
    9970:	e1570000 	cmp	r7, r0
    9974:	23a00000 	movcs	r0, #0
    9978:	33a00001 	movcc	r0, #1
    997c:	e8bd80f8 	pop	{r3, r4, r5, r6, r7, pc}
    9980:	e0600007 	rsb	r0, r0, r7
    9984:	e8bd80f8 	pop	{r3, r4, r5, r6, r7, pc}
    9988:	e0800007 	add	r0, r0, r7
    998c:	e8bd80f8 	pop	{r3, r4, r5, r6, r7, pc}
    9990:	e1a00007 	mov	r0, r7
    9994:	eb01719c 	bl	6600c <__aeabi_uidivmod>
    9998:	e1a00001 	mov	r0, r1
    999c:	e8bd80f8 	pop	{r3, r4, r5, r6, r7, pc}
    99a0:	e1a00007 	mov	r0, r7
    99a4:	eb01711d 	bl	65e20 <__aeabi_uidiv>
    99a8:	e8bd80f8 	pop	{r3, r4, r5, r6, r7, pc}
    99ac:	e0000197 	mul	r0, r7, r1
    99b0:	e8bd80f8 	pop	{r3, r4, r5, r6, r7, pc}

000099b4 <transcmp>:
    99b4:	e92d4038 	push	{r3, r4, r5, lr}
    99b8:	e1a05000 	mov	r5, r0
    99bc:	e1a04001 	mov	r4, r1
    99c0:	e5903010 	ldr	r3, [r0, #16]
    99c4:	e3530000 	cmp	r3, #0
    99c8:	e5913010 	ldr	r3, [r1, #16]
    99cc:	1280001c 	addne	r0, r0, #28
    99d0:	0595001c 	ldreq	r0, [r5, #28]
    99d4:	e3530000 	cmp	r3, #0
    99d8:	1281101c 	addne	r1, r1, #28
    99dc:	0594101c 	ldreq	r1, [r4, #28]
    99e0:	eb004d8e 	bl	1d020 <strcmp>
    99e4:	e3500000 	cmp	r0, #0
    99e8:	18bd8038 	popne	{r3, r4, r5, pc}
    99ec:	e5950000 	ldr	r0, [r5]
    99f0:	e5941000 	ldr	r1, [r4]
    99f4:	eb004d89 	bl	1d020 <strcmp>
    99f8:	e3500000 	cmp	r0, #0
    99fc:	18bd8038 	popne	{r3, r4, r5, pc}
    9a00:	e5950008 	ldr	r0, [r5, #8]
    9a04:	e5941008 	ldr	r1, [r4, #8]
    9a08:	eb004d84 	bl	1d020 <strcmp>
    9a0c:	e3500000 	cmp	r0, #0
    9a10:	05943004 	ldreq	r3, [r4, #4]
    9a14:	05950004 	ldreq	r0, [r5, #4]
    9a18:	00630000 	rsbeq	r0, r3, r0
    9a1c:	e8bd8038 	pop	{r3, r4, r5, pc}

00009a20 <plural_lookup.isra.1>:
    9a20:	e92d4070 	push	{r4, r5, r6, lr}
    9a24:	e1a04000 	mov	r4, r0
    9a28:	e5900060 	ldr	r0, [r0, #96]	; 0x60
    9a2c:	e1a06002 	mov	r6, r2
    9a30:	e1a05003 	mov	r5, r3
    9a34:	ebffff6d 	bl	97f0 <plural_eval>
    9a38:	e5944064 	ldr	r4, [r4, #100]	; 0x64
    9a3c:	e0865005 	add	r5, r6, r5
    9a40:	e1500004 	cmp	r0, r4
    9a44:	31a04000 	movcc	r4, r0
    9a48:	23a04000 	movcs	r4, #0
    9a4c:	e1a00006 	mov	r0, r6
    9a50:	ea000005 	b	9a6c <plural_lookup.isra.1+0x4c>
    9a54:	e3a01000 	mov	r1, #0
    9a58:	eb005334 	bl	1e730 <__rawmemchr>
    9a5c:	e2800001 	add	r0, r0, #1
    9a60:	e1500005 	cmp	r0, r5
    9a64:	e2444001 	sub	r4, r4, #1
    9a68:	2a000002 	bcs	9a78 <plural_lookup.isra.1+0x58>
    9a6c:	e3540000 	cmp	r4, #0
    9a70:	1afffff7 	bne	9a54 <plural_lookup.isra.1+0x34>
    9a74:	e8bd8070 	pop	{r4, r5, r6, pc}
    9a78:	e1a00006 	mov	r0, r6
    9a7c:	e8bd8070 	pop	{r4, r5, r6, pc}

00009a80 <_nl_find_msg>:
    9a80:	e92d4ff0 	push	{r4, r5, r6, r7, r8, r9, sl, fp, lr}
    9a84:	e28db020 	add	fp, sp, #32
    9a88:	e24dd03c 	sub	sp, sp, #60	; 0x3c
    9a8c:	e590c004 	ldr	ip, [r0, #4]
    9a90:	e50b0040 	str	r0, [fp, #-64]	; 0x40
    9a94:	e35c0000 	cmp	ip, #0
    9a98:	e1a08002 	mov	r8, r2
    9a9c:	e50b3044 	str	r3, [fp, #-68]	; 0x44
    9aa0:	e50b1048 	str	r1, [fp, #-72]	; 0x48
    9aa4:	da0000da 	ble	9e14 <_nl_find_msg+0x394>
    9aa8:	e51b1040 	ldr	r1, [fp, #-64]	; 0x40
    9aac:	e5916008 	ldr	r6, [r1, #8]
    9ab0:	e3560000 	cmp	r6, #0
    9ab4:	0a00009e 	beq	9d34 <_nl_find_msg+0x2b4>
    9ab8:	e5962030 	ldr	r2, [r6, #48]	; 0x30
    9abc:	e5967014 	ldr	r7, [r6, #20]
    9ac0:	e3520000 	cmp	r2, #0
    9ac4:	0a00009d 	beq	9d40 <_nl_find_msg+0x2c0>
    9ac8:	e1a00008 	mov	r0, r8
    9acc:	eb004d6f 	bl	1d090 <strlen>
    9ad0:	e1a09000 	mov	r9, r0
    9ad4:	e1a00008 	mov	r0, r8
    9ad8:	eb001135 	bl	dfb4 <__hash_string>
    9adc:	e596502c 	ldr	r5, [r6, #44]	; 0x2c
    9ae0:	e1a0a000 	mov	sl, r0
    9ae4:	e1a01005 	mov	r1, r5
    9ae8:	eb017147 	bl	6600c <__aeabi_uidivmod>
    9aec:	e1a0000a 	mov	r0, sl
    9af0:	e1a04001 	mov	r4, r1
    9af4:	e2451002 	sub	r1, r5, #2
    9af8:	eb017143 	bl	6600c <__aeabi_uidivmod>
    9afc:	e1a03008 	mov	r3, r8
    9b00:	e2811001 	add	r1, r1, #1
    9b04:	e5962034 	ldr	r2, [r6, #52]	; 0x34
    9b08:	e061c005 	rsb	ip, r1, r5
    9b0c:	e0655001 	rsb	r5, r5, r1
    9b10:	e1a08002 	mov	r8, r2
    9b14:	e50b1038 	str	r1, [fp, #-56]	; 0x38
    9b18:	e596a030 	ldr	sl, [r6, #48]	; 0x30
    9b1c:	e50b503c 	str	r5, [fp, #-60]	; 0x3c
    9b20:	e1a02003 	mov	r2, r3
    9b24:	ea000022 	b	9bb4 <_nl_find_msg+0x134>
    9b28:	e596100c 	ldr	r1, [r6, #12]
    9b2c:	e5960018 	ldr	r0, [r6, #24]
    9b30:	e3510000 	cmp	r1, #0
    9b34:	1790e185 	ldrne	lr, [r0, r5, lsl #3]
    9b38:	07903185 	ldreq	r3, [r0, r5, lsl #3]
    9b3c:	102e386e 	eorne	r3, lr, lr, ror #16
    9b40:	11a03423 	lsrne	r3, r3, #8
    9b44:	13c33cff 	bicne	r3, r3, #65280	; 0xff00
    9b48:	1023346e 	eorne	r3, r3, lr, ror #8
    9b4c:	e1530009 	cmp	r3, r9
    9b50:	3a000029 	bcc	9bfc <_nl_find_msg+0x17c>
    9b54:	e3510000 	cmp	r1, #0
    9b58:	e0800185 	add	r0, r0, r5, lsl #3
    9b5c:	15900004 	ldrne	r0, [r0, #4]
    9b60:	e5961000 	ldr	r1, [r6]
    9b64:	10203860 	eorne	r3, r0, r0, ror #16
    9b68:	11a03423 	lsrne	r3, r3, #8
    9b6c:	13c33cff 	bicne	r3, r3, #65280	; 0xff00
    9b70:	05903004 	ldreq	r3, [r0, #4]
    9b74:	10233460 	eorne	r3, r3, r0, ror #8
    9b78:	e0811003 	add	r1, r1, r3
    9b7c:	e1a00002 	mov	r0, r2
    9b80:	e50b204c 	str	r2, [fp, #-76]	; 0x4c
    9b84:	e50bc050 	str	ip, [fp, #-80]	; 0x50
    9b88:	eb004d24 	bl	1d020 <strcmp>
    9b8c:	e16f0f10 	clz	r0, r0
    9b90:	e1a002a0 	lsr	r0, r0, #5
    9b94:	e3500000 	cmp	r0, #0
    9b98:	e51b204c 	ldr	r2, [fp, #-76]	; 0x4c
    9b9c:	e51bc050 	ldr	ip, [fp, #-80]	; 0x50
    9ba0:	1a000018 	bne	9c08 <_nl_find_msg+0x188>
    9ba4:	e154000c 	cmp	r4, ip
    9ba8:	251b303c 	ldrcs	r3, [fp, #-60]	; 0x3c
    9bac:	351b3038 	ldrcc	r3, [fp, #-56]	; 0x38
    9bb0:	e0844003 	add	r4, r4, r3
    9bb4:	e79a5104 	ldr	r5, [sl, r4, lsl #2]
    9bb8:	e3580000 	cmp	r8, #0
    9bbc:	10253865 	eorne	r3, r5, r5, ror #16
    9bc0:	11a03423 	lsrne	r3, r3, #8
    9bc4:	13c33cff 	bicne	r3, r3, #65280	; 0xff00
    9bc8:	10235465 	eorne	r5, r3, r5, ror #8
    9bcc:	e3550000 	cmp	r5, #0
    9bd0:	0a000057 	beq	9d34 <_nl_find_msg+0x2b4>
    9bd4:	e2455001 	sub	r5, r5, #1
    9bd8:	e1570005 	cmp	r7, r5
    9bdc:	8affffd1 	bhi	9b28 <_nl_find_msg+0xa8>
    9be0:	e5963024 	ldr	r3, [r6, #36]	; 0x24
    9be4:	e0671005 	rsb	r1, r7, r5
    9be8:	e7930181 	ldr	r0, [r3, r1, lsl #3]
    9bec:	e0833181 	add	r3, r3, r1, lsl #3
    9bf0:	e1590000 	cmp	r9, r0
    9bf4:	35931004 	ldrcc	r1, [r3, #4]
    9bf8:	3affffdf 	bcc	9b7c <_nl_find_msg+0xfc>
    9bfc:	e3a00000 	mov	r0, #0
    9c00:	e3500000 	cmp	r0, #0
    9c04:	0affffe6 	beq	9ba4 <_nl_find_msg+0x124>
    9c08:	e1550007 	cmp	r5, r7
    9c0c:	2a000069 	bcs	9db8 <_nl_find_msg+0x338>
    9c10:	e596300c 	ldr	r3, [r6, #12]
    9c14:	e5961000 	ldr	r1, [r6]
    9c18:	e3530000 	cmp	r3, #0
    9c1c:	e596301c 	ldr	r3, [r6, #28]
    9c20:	e0832185 	add	r2, r3, r5, lsl #3
    9c24:	0a000073 	beq	9df8 <_nl_find_msg+0x378>
    9c28:	e592c004 	ldr	ip, [r2, #4]
    9c2c:	e7930185 	ldr	r0, [r3, r5, lsl #3]
    9c30:	e02c286c 	eor	r2, ip, ip, ror #16
    9c34:	e1a02422 	lsr	r2, r2, #8
    9c38:	e3c22cff 	bic	r2, r2, #65280	; 0xff00
    9c3c:	e0203860 	eor	r3, r0, r0, ror #16
    9c40:	e022246c 	eor	r2, r2, ip, ror #8
    9c44:	e0812002 	add	r2, r1, r2
    9c48:	e1a03423 	lsr	r3, r3, #8
    9c4c:	e3c33cff 	bic	r3, r3, #65280	; 0xff00
    9c50:	e50b2038 	str	r2, [fp, #-56]	; 0x38
    9c54:	e51b2044 	ldr	r2, [fp, #-68]	; 0x44
    9c58:	e0233460 	eor	r3, r3, r0, ror #8
    9c5c:	e2833001 	add	r3, r3, #1
    9c60:	e3520000 	cmp	r2, #0
    9c64:	e50b303c 	str	r3, [fp, #-60]	; 0x3c
    9c68:	0a00005c 	beq	9de0 <_nl_find_msg+0x360>
    9c6c:	e51b3048 	ldr	r3, [fp, #-72]	; 0x48
    9c70:	e3530000 	cmp	r3, #0
    9c74:	0a00006d 	beq	9e30 <_nl_find_msg+0x3b0>
    9c78:	e5934008 	ldr	r4, [r3, #8]
    9c7c:	e3540000 	cmp	r4, #0
    9c80:	0a00006a 	beq	9e30 <_nl_find_msg+0x3b0>
    9c84:	e59f3918 	ldr	r3, [pc, #2328]	; a5a4 <_nl_find_msg+0xb24>
    9c88:	e3530000 	cmp	r3, #0
    9c8c:	0a000001 	beq	9c98 <_nl_find_msg+0x218>
    9c90:	e2860040 	add	r0, r6, #64	; 0x40
    9c94:	e1a00000 	nop			; (mov r0, r0)
    9c98:	e596a03c 	ldr	sl, [r6, #60]	; 0x3c
    9c9c:	e35a0000 	cmp	sl, #0
    9ca0:	0a000060 	beq	9e28 <_nl_find_msg+0x3a8>
    9ca4:	e5963038 	ldr	r3, [r6, #56]	; 0x38
    9ca8:	e08a808a 	add	r8, sl, sl, lsl #1
    9cac:	e0838108 	add	r8, r3, r8, lsl #2
    9cb0:	ea000001 	b	9cbc <_nl_find_msg+0x23c>
    9cb4:	e35a0000 	cmp	sl, #0
    9cb8:	0a00005a 	beq	9e28 <_nl_find_msg+0x3a8>
    9cbc:	e518000c 	ldr	r0, [r8, #-12]
    9cc0:	e1a01004 	mov	r1, r4
    9cc4:	eb004cd5 	bl	1d020 <strcmp>
    9cc8:	e3500000 	cmp	r0, #0
    9ccc:	e248800c 	sub	r8, r8, #12
    9cd0:	e24aa001 	sub	sl, sl, #1
    9cd4:	1afffff6 	bne	9cb4 <_nl_find_msg+0x234>
    9cd8:	e59fe8c8 	ldr	lr, [pc, #2248]	; a5a8 <_nl_find_msg+0xb28>
    9cdc:	e35e0000 	cmp	lr, #0
    9ce0:	0a000001 	beq	9cec <_nl_find_msg+0x26c>
    9ce4:	e2860040 	add	r0, r6, #64	; 0x40
    9ce8:	e1a00000 	nop			; (mov r0, r0)
    9cec:	e3580000 	cmp	r8, #0
    9cf0:	0a00005c 	beq	9e68 <_nl_find_msg+0x3e8>
    9cf4:	e5983004 	ldr	r3, [r8, #4]
    9cf8:	e3730001 	cmn	r3, #1
    9cfc:	0a000037 	beq	9de0 <_nl_find_msg+0x360>
    9d00:	e5984008 	ldr	r4, [r8, #8]
    9d04:	e3540000 	cmp	r4, #0
    9d08:	0a0001e7 	beq	a4ac <_nl_find_msg+0xa2c>
    9d0c:	e3740001 	cmn	r4, #1
    9d10:	0a0000d8 	beq	a078 <_nl_find_msg+0x5f8>
    9d14:	e7944105 	ldr	r4, [r4, r5, lsl #2]
    9d18:	e3540000 	cmp	r4, #0
    9d1c:	0a000070 	beq	9ee4 <_nl_find_msg+0x464>
    9d20:	e594e000 	ldr	lr, [r4]
    9d24:	e2844004 	add	r4, r4, #4
    9d28:	e50be03c 	str	lr, [fp, #-60]	; 0x3c
    9d2c:	e50b4038 	str	r4, [fp, #-56]	; 0x38
    9d30:	ea00002a 	b	9de0 <_nl_find_msg+0x360>
    9d34:	e3a00000 	mov	r0, #0
    9d38:	e24bd020 	sub	sp, fp, #32
    9d3c:	e8bd8ff0 	pop	{r4, r5, r6, r7, r8, r9, sl, fp, pc}
    9d40:	e1a0a006 	mov	sl, r6
    9d44:	e50b703c 	str	r7, [fp, #-60]	; 0x3c
    9d48:	e1a06002 	mov	r6, r2
    9d4c:	e50b8038 	str	r8, [fp, #-56]	; 0x38
    9d50:	ea000001 	b	9d5c <_nl_find_msg+0x2dc>
    9d54:	0a000030 	beq	9e1c <_nl_find_msg+0x39c>
    9d58:	e2856001 	add	r6, r5, #1
    9d5c:	e1570006 	cmp	r7, r6
    9d60:	9afffff3 	bls	9d34 <_nl_find_msg+0x2b4>
    9d64:	e59a4000 	ldr	r4, [sl]
    9d68:	e59a900c 	ldr	r9, [sl, #12]
    9d6c:	e59a8018 	ldr	r8, [sl, #24]
    9d70:	e0875006 	add	r5, r7, r6
    9d74:	e1a050a5 	lsr	r5, r5, #1
    9d78:	e0883185 	add	r3, r8, r5, lsl #3
    9d7c:	e5931004 	ldr	r1, [r3, #4]
    9d80:	e3590000 	cmp	r9, #0
    9d84:	10213861 	eorne	r3, r1, r1, ror #16
    9d88:	11a03423 	lsrne	r3, r3, #8
    9d8c:	13c33cff 	bicne	r3, r3, #65280	; 0xff00
    9d90:	10231461 	eorne	r1, r3, r1, ror #8
    9d94:	e51b0038 	ldr	r0, [fp, #-56]	; 0x38
    9d98:	e0841001 	add	r1, r4, r1
    9d9c:	eb004c9f 	bl	1d020 <strcmp>
    9da0:	e3500000 	cmp	r0, #0
    9da4:	aaffffea 	bge	9d54 <_nl_find_msg+0x2d4>
    9da8:	e1550006 	cmp	r5, r6
    9dac:	9affffe0 	bls	9d34 <_nl_find_msg+0x2b4>
    9db0:	e1a07005 	mov	r7, r5
    9db4:	eaffffed 	b	9d70 <_nl_find_msg+0x2f0>
    9db8:	e5963028 	ldr	r3, [r6, #40]	; 0x28
    9dbc:	e0672005 	rsb	r2, r7, r5
    9dc0:	e0831182 	add	r1, r3, r2, lsl #3
    9dc4:	e5911004 	ldr	r1, [r1, #4]
    9dc8:	e7933182 	ldr	r3, [r3, r2, lsl #3]
    9dcc:	e50b1038 	str	r1, [fp, #-56]	; 0x38
    9dd0:	e50b303c 	str	r3, [fp, #-60]	; 0x3c
    9dd4:	e51b2044 	ldr	r2, [fp, #-68]	; 0x44
    9dd8:	e3520000 	cmp	r2, #0
    9ddc:	1affffa2 	bne	9c6c <_nl_find_msg+0x1ec>
    9de0:	e51b103c 	ldr	r1, [fp, #-60]	; 0x3c
    9de4:	e59b2004 	ldr	r2, [fp, #4]
    9de8:	e51b0038 	ldr	r0, [fp, #-56]	; 0x38
    9dec:	e5821000 	str	r1, [r2]
    9df0:	e24bd020 	sub	sp, fp, #32
    9df4:	e8bd8ff0 	pop	{r4, r5, r6, r7, r8, r9, sl, fp, pc}
    9df8:	e5922004 	ldr	r2, [r2, #4]
    9dfc:	e7939185 	ldr	r9, [r3, r5, lsl #3]
    9e00:	e0812002 	add	r2, r1, r2
    9e04:	e2899001 	add	r9, r9, #1
    9e08:	e50b2038 	str	r2, [fp, #-56]	; 0x38
    9e0c:	e50b903c 	str	r9, [fp, #-60]	; 0x3c
    9e10:	eaffffef 	b	9dd4 <_nl_find_msg+0x354>
    9e14:	eb000470 	bl	afdc <_nl_load_domain>
    9e18:	eaffff22 	b	9aa8 <_nl_find_msg+0x28>
    9e1c:	e1a0600a 	mov	r6, sl
    9e20:	e51b703c 	ldr	r7, [fp, #-60]	; 0x3c
    9e24:	eaffff77 	b	9c08 <_nl_find_msg+0x188>
    9e28:	e1a0800a 	mov	r8, sl
    9e2c:	eaffffa9 	b	9cd8 <_nl_find_msg+0x258>
    9e30:	e59fa774 	ldr	sl, [pc, #1908]	; a5ac <_nl_find_msg+0xb2c>
    9e34:	e59a3008 	ldr	r3, [sl, #8]
    9e38:	e3530000 	cmp	r3, #0
    9e3c:	0a00008f 	beq	a080 <_nl_find_msg+0x600>
    9e40:	e59a400c 	ldr	r4, [sl, #12]
    9e44:	e3540000 	cmp	r4, #0
    9e48:	1affff8d 	bne	9c84 <_nl_find_msg+0x204>
    9e4c:	e59f375c 	ldr	r3, [pc, #1884]	; a5b0 <_nl_find_msg+0xb30>
    9e50:	ebfffde2 	bl	95e0 <__aeabi_read_tp>
    9e54:	e79f3003 	ldr	r3, [pc, r3]
    9e58:	e7903003 	ldr	r3, [r0, r3]
    9e5c:	e5933000 	ldr	r3, [r3]
    9e60:	e593405c 	ldr	r4, [r3, #92]	; 0x5c
    9e64:	eaffff86 	b	9c84 <_nl_find_msg+0x204>
    9e68:	e59f3744 	ldr	r3, [pc, #1860]	; a5b4 <_nl_find_msg+0xb34>
    9e6c:	e3530000 	cmp	r3, #0
    9e70:	0a000001 	beq	9e7c <_nl_find_msg+0x3fc>
    9e74:	e2860040 	add	r0, r6, #64	; 0x40
    9e78:	e1a00000 	nop			; (mov r0, r0)
    9e7c:	e596903c 	ldr	r9, [r6, #60]	; 0x3c
    9e80:	e3590000 	cmp	r9, #0
    9e84:	05962038 	ldreq	r2, [r6, #56]	; 0x38
    9e88:	050b2044 	streq	r2, [fp, #-68]	; 0x44
    9e8c:	0a000086 	beq	a0ac <_nl_find_msg+0x62c>
    9e90:	e5963038 	ldr	r3, [r6, #56]	; 0x38
    9e94:	e0898089 	add	r8, r9, r9, lsl #1
    9e98:	e1a0a009 	mov	sl, r9
    9e9c:	e50b3044 	str	r3, [fp, #-68]	; 0x44
    9ea0:	e0838108 	add	r8, r3, r8, lsl #2
    9ea4:	ea000001 	b	9eb0 <_nl_find_msg+0x430>
    9ea8:	e35a0000 	cmp	sl, #0
    9eac:	0a00007e 	beq	a0ac <_nl_find_msg+0x62c>
    9eb0:	e518000c 	ldr	r0, [r8, #-12]
    9eb4:	e1a01004 	mov	r1, r4
    9eb8:	eb004c58 	bl	1d020 <strcmp>
    9ebc:	e3500000 	cmp	r0, #0
    9ec0:	e248800c 	sub	r8, r8, #12
    9ec4:	e24aa001 	sub	sl, sl, #1
    9ec8:	1afffff6 	bne	9ea8 <_nl_find_msg+0x428>
    9ecc:	e59f26d4 	ldr	r2, [pc, #1748]	; a5a8 <_nl_find_msg+0xb28>
    9ed0:	e3520000 	cmp	r2, #0
    9ed4:	0affff86 	beq	9cf4 <_nl_find_msg+0x274>
    9ed8:	e2860040 	add	r0, r6, #64	; 0x40
    9edc:	e1a00000 	nop			; (mov r0, r0)
    9ee0:	eaffff83 	b	9cf4 <_nl_find_msg+0x274>
    9ee4:	e3a01001 	mov	r1, #1
    9ee8:	e59f26c8 	ldr	r2, [pc, #1736]	; a5b8 <_nl_find_msg+0xb38>
    9eec:	e5923000 	ldr	r3, [r2]
    9ef0:	e1530004 	cmp	r3, r4
    9ef4:	1a000005 	bne	9f10 <_nl_find_msg+0x490>
    9ef8:	e1a00004 	mov	r0, r4
    9efc:	e3e03a0f 	mvn	r3, #61440	; 0xf000
    9f00:	e1a0e00f 	mov	lr, pc
    9f04:	e243f03f 	sub	pc, r3, #63	; 0x3f
    9f08:	3afffff7 	bcc	9eec <_nl_find_msg+0x46c>
    9f0c:	e1a03004 	mov	r3, r4
    9f10:	e3530000 	cmp	r3, #0
    9f14:	1a00015a 	bne	a484 <_nl_find_msg+0xa04>
    9f18:	e59fa68c 	ldr	sl, [pc, #1676]	; a5ac <_nl_find_msg+0xb2c>
    9f1c:	e51be038 	ldr	lr, [fp, #-56]	; 0x38
    9f20:	e59a2014 	ldr	r2, [sl, #20]
    9f24:	e3a06000 	mov	r6, #0
    9f28:	e2822004 	add	r2, r2, #4
    9f2c:	e1a0400a 	mov	r4, sl
    9f30:	e59a3018 	ldr	r3, [sl, #24]
    9f34:	e50be030 	str	lr, [fp, #-48]	; 0x30
    9f38:	e50b202c 	str	r2, [fp, #-44]	; 0x2c
    9f3c:	e50b5040 	str	r5, [fp, #-64]	; 0x40
    9f40:	e51b903c 	ldr	r9, [fp, #-60]	; 0x3c
    9f44:	ea000013 	b	9f98 <_nl_find_msg+0x518>
    9f48:	e3560000 	cmp	r6, #0
    9f4c:	e2866001 	add	r6, r6, #1
    9f50:	e0663406 	rsb	r3, r6, r6, lsl #8
    9f54:	e1a05203 	lsl	r5, r3, #4
    9f58:	0a000023 	beq	9fec <_nl_find_msg+0x56c>
    9f5c:	e59a7004 	ldr	r7, [sl, #4]
    9f60:	e1a01005 	mov	r1, r5
    9f64:	e1a00007 	mov	r0, r7
    9f68:	e58a5018 	str	r5, [sl, #24]
    9f6c:	eb004535 	bl	1b448 <__libc_realloc>
    9f70:	e3500000 	cmp	r0, #0
    9f74:	e59f1630 	ldr	r1, [pc, #1584]	; a5ac <_nl_find_msg+0xb2c>
    9f78:	0a000026 	beq	a018 <_nl_find_msg+0x598>
    9f7c:	e5840004 	str	r0, [r4, #4]
    9f80:	e2453004 	sub	r3, r5, #4
    9f84:	e2801004 	add	r1, r0, #4
    9f88:	e2802008 	add	r2, r0, #8
    9f8c:	e58a3018 	str	r3, [sl, #24]
    9f90:	e58a1014 	str	r1, [sl, #20]
    9f94:	e50b202c 	str	r2, [fp, #-44]	; 0x2c
    9f98:	e3530003 	cmp	r3, #3
    9f9c:	9affffe9 	bls	9f48 <_nl_find_msg+0x4c8>
    9fa0:	e51b102c 	ldr	r1, [fp, #-44]	; 0x2c
    9fa4:	e51b2030 	ldr	r2, [fp, #-48]	; 0x30
    9fa8:	e2433004 	sub	r3, r3, #4
    9fac:	e0813003 	add	r3, r1, r3
    9fb0:	e24b1028 	sub	r1, fp, #40	; 0x28
    9fb4:	e5980004 	ldr	r0, [r8, #4]
    9fb8:	e0822009 	add	r2, r2, r9
    9fbc:	e58d3000 	str	r3, [sp]
    9fc0:	e58d1004 	str	r1, [sp, #4]
    9fc4:	e24b302c 	sub	r3, fp, #44	; 0x2c
    9fc8:	e24b1030 	sub	r1, fp, #48	; 0x30
    9fcc:	eb00657b 	bl	235c0 <__gconv>
    9fd0:	e3d02004 	bics	r2, r0, #4
    9fd4:	0a0000b5 	beq	a2b0 <_nl_find_msg+0x830>
    9fd8:	e3500005 	cmp	r0, #5
    9fdc:	1a0000d9 	bne	a348 <_nl_find_msg+0x8c8>
    9fe0:	e51b3038 	ldr	r3, [fp, #-56]	; 0x38
    9fe4:	e50b3030 	str	r3, [fp, #-48]	; 0x30
    9fe8:	eaffffd6 	b	9f48 <_nl_find_msg+0x4c8>
    9fec:	e3a00eff 	mov	r0, #4080	; 0xff0
    9ff0:	e58a0018 	str	r0, [sl, #24]
    9ff4:	eb0042fd 	bl	1abf0 <__libc_malloc>
    9ff8:	e3500000 	cmp	r0, #0
    9ffc:	0a000009 	beq	a028 <_nl_find_msg+0x5a8>
    a000:	e5941004 	ldr	r1, [r4, #4]
    a004:	e59f35b0 	ldr	r3, [pc, #1456]	; a5bc <_nl_find_msg+0xb3c>
    a008:	e5801000 	str	r1, [r0]
    a00c:	e5840004 	str	r0, [r4, #4]
    a010:	e3a06001 	mov	r6, #1
    a014:	eaffffda 	b	9f84 <_nl_find_msg+0x504>
    a018:	e5973000 	ldr	r3, [r7]
    a01c:	e1a00007 	mov	r0, r7
    a020:	e5813004 	str	r3, [r1, #4]
    a024:	eb0044e0 	bl	1b3ac <__cfree>
    a028:	e3a03000 	mov	r3, #0
    a02c:	e58a3014 	str	r3, [sl, #20]
    a030:	e58a3018 	str	r3, [sl, #24]
    a034:	e59a5010 	ldr	r5, [sl, #16]
    a038:	e3a01000 	mov	r1, #0
    a03c:	e1a04005 	mov	r4, r5
    a040:	e59f2570 	ldr	r2, [pc, #1392]	; a5b8 <_nl_find_msg+0xb38>
    a044:	e5923000 	ldr	r3, [r2]
    a048:	e1530004 	cmp	r3, r4
    a04c:	1a000005 	bne	a068 <_nl_find_msg+0x5e8>
    a050:	e1a00004 	mov	r0, r4
    a054:	e3e03a0f 	mvn	r3, #61440	; 0xf000
    a058:	e1a0e00f 	mov	lr, pc
    a05c:	e243f03f 	sub	pc, r3, #63	; 0x3f
    a060:	3afffff7 	bcc	a044 <_nl_find_msg+0x5c4>
    a064:	e1a03004 	mov	r3, r4
    a068:	e1550003 	cmp	r5, r3
    a06c:	1afffff0 	bne	a034 <_nl_find_msg+0x5b4>
    a070:	e3550001 	cmp	r5, #1
    a074:	ca0000fa 	bgt	a464 <_nl_find_msg+0x9e4>
    a078:	e3e00000 	mvn	r0, #0
    a07c:	eaffff2d 	b	9d38 <_nl_find_msg+0x2b8>
    a080:	e59f0538 	ldr	r0, [pc, #1336]	; a5c0 <_nl_find_msg+0xb40>
    a084:	eb001206 	bl	e8a4 <getenv>
    a088:	e2501000 	subs	r1, r0, #0
    a08c:	0a000002 	beq	a09c <_nl_find_msg+0x61c>
    a090:	e5d13000 	ldrb	r3, [r1]
    a094:	e3530000 	cmp	r3, #0
    a098:	1a0000c3 	bne	a3ac <_nl_find_msg+0x92c>
    a09c:	e59a400c 	ldr	r4, [sl, #12]
    a0a0:	e3a03001 	mov	r3, #1
    a0a4:	e58a3008 	str	r3, [sl, #8]
    a0a8:	eaffff65 	b	9e44 <_nl_find_msg+0x3c4>
    a0ac:	e289a001 	add	sl, r9, #1
    a0b0:	e08aa08a 	add	sl, sl, sl, lsl #1
    a0b4:	e1a0810a 	lsl	r8, sl, #2
    a0b8:	e51b0044 	ldr	r0, [fp, #-68]	; 0x44
    a0bc:	e1a01008 	mov	r1, r8
    a0c0:	eb0044e0 	bl	1b448 <__libc_realloc>
    a0c4:	e250a000 	subs	sl, r0, #0
    a0c8:	0a00012d 	beq	a584 <_nl_find_msg+0xb04>
    a0cc:	e1a00004 	mov	r0, r4
    a0d0:	e586a038 	str	sl, [r6, #56]	; 0x38
    a0d4:	eb004be1 	bl	1d060 <__strdup>
    a0d8:	e2504000 	subs	r4, r0, #0
    a0dc:	0a000128 	beq	a584 <_nl_find_msg+0xb04>
    a0e0:	e3e02000 	mvn	r2, #0
    a0e4:	e248300c 	sub	r3, r8, #12
    a0e8:	e08a8003 	add	r8, sl, r3
    a0ec:	e24bc028 	sub	ip, fp, #40	; 0x28
    a0f0:	e78a4003 	str	r4, [sl, r3]
    a0f4:	e51b0040 	ldr	r0, [fp, #-64]	; 0x40
    a0f8:	e5882004 	str	r2, [r8, #4]
    a0fc:	e51b1048 	ldr	r1, [fp, #-72]	; 0x48
    a100:	e59f24bc 	ldr	r2, [pc, #1212]	; a5c4 <_nl_find_msg+0xb44>
    a104:	e58dc000 	str	ip, [sp]
    a108:	e3a03000 	mov	r3, #0
    a10c:	ebfffe5b 	bl	9a80 <_nl_find_msg>
    a110:	e3700001 	cmn	r0, #1
    a114:	0affffd7 	beq	a078 <_nl_find_msg+0x5f8>
    a118:	e3500000 	cmp	r0, #0
    a11c:	0a00005d 	beq	a298 <_nl_find_msg+0x818>
    a120:	e59f14a0 	ldr	r1, [pc, #1184]	; a5c8 <_nl_find_msg+0xb48>
    a124:	eb004d6f 	bl	1d6e8 <strstr>
    a128:	e3500000 	cmp	r0, #0
    a12c:	0a000059 	beq	a298 <_nl_find_msg+0x818>
    a130:	e5d03008 	ldrb	r3, [r0, #8]
    a134:	e2801008 	add	r1, r0, #8
    a138:	e21320df 	ands	r2, r3, #223	; 0xdf
    a13c:	0a00000e 	beq	a17c <_nl_find_msg+0x6fc>
    a140:	e2433009 	sub	r3, r3, #9
    a144:	e3530001 	cmp	r3, #1
    a148:	9a000113 	bls	a59c <_nl_find_msg+0xb1c>
    a14c:	e1a00001 	mov	r0, r1
    a150:	e3a02000 	mov	r2, #0
    a154:	ea000003 	b	a168 <_nl_find_msg+0x6e8>
    a158:	e3530020 	cmp	r3, #32
    a15c:	0a000006 	beq	a17c <_nl_find_msg+0x6fc>
    a160:	e35c0001 	cmp	ip, #1
    a164:	9a000004 	bls	a17c <_nl_find_msg+0x6fc>
    a168:	e5f03001 	ldrb	r3, [r0, #1]!
    a16c:	e2822001 	add	r2, r2, #1
    a170:	e3530000 	cmp	r3, #0
    a174:	e243c009 	sub	ip, r3, #9
    a178:	1afffff6 	bne	a158 <_nl_find_msg+0x6d8>
    a17c:	e282300f 	add	r3, r2, #15
    a180:	e3c33007 	bic	r3, r3, #7
    a184:	e04dd003 	sub	sp, sp, r3
    a188:	e28da008 	add	sl, sp, #8
    a18c:	e1a0000a 	mov	r0, sl
    a190:	eb00509a 	bl	1e400 <__mempcpy>
    a194:	e3a0c000 	mov	ip, #0
    a198:	e1a03004 	mov	r3, r4
    a19c:	e5c0c000 	strb	ip, [r0]
    a1a0:	ea000001 	b	a1ac <_nl_find_msg+0x72c>
    a1a4:	e352002f 	cmp	r2, #47	; 0x2f
    a1a8:	028cc001 	addeq	ip, ip, #1
    a1ac:	e1a01003 	mov	r1, r3
    a1b0:	e4d32001 	ldrb	r2, [r3], #1
    a1b4:	e3520000 	cmp	r2, #0
    a1b8:	1afffff9 	bne	a1a4 <_nl_find_msg+0x724>
    a1bc:	e0642001 	rsb	r2, r4, r1
    a1c0:	e2822019 	add	r2, r2, #25
    a1c4:	e5d43000 	ldrb	r3, [r4]
    a1c8:	e3c22007 	bic	r2, r2, #7
    a1cc:	e04dd002 	sub	sp, sp, r2
    a1d0:	e3530000 	cmp	r3, #0
    a1d4:	e28d9008 	add	r9, sp, #8
    a1d8:	0a000092 	beq	a428 <_nl_find_msg+0x9a8>
    a1dc:	e1a02004 	mov	r2, r4
    a1e0:	e1a00009 	mov	r0, r9
    a1e4:	e59f13e0 	ldr	r1, [pc, #992]	; a5cc <_nl_find_msg+0xb4c>
    a1e8:	e591103c 	ldr	r1, [r1, #60]	; 0x3c
    a1ec:	e7913103 	ldr	r3, [r1, r3, lsl #2]
    a1f0:	e4c03001 	strb	r3, [r0], #1
    a1f4:	e5f23001 	ldrb	r3, [r2, #1]!
    a1f8:	e3530000 	cmp	r3, #0
    a1fc:	1afffffa 	bne	a1ec <_nl_find_msg+0x76c>
    a200:	e35c0001 	cmp	ip, #1
    a204:	9a000075 	bls	a3e0 <_nl_find_msg+0x960>
    a208:	e3a02000 	mov	r2, #0
    a20c:	e1a0300a 	mov	r3, sl
    a210:	e5c02000 	strb	r2, [r0]
    a214:	ea000001 	b	a220 <_nl_find_msg+0x7a0>
    a218:	e351002f 	cmp	r1, #47	; 0x2f
    a21c:	02822001 	addeq	r2, r2, #1
    a220:	e1a00003 	mov	r0, r3
    a224:	e4d31001 	ldrb	r1, [r3], #1
    a228:	e3510000 	cmp	r1, #0
    a22c:	1afffff9 	bne	a218 <_nl_find_msg+0x798>
    a230:	e06a1000 	rsb	r1, sl, r0
    a234:	e2811011 	add	r1, r1, #17
    a238:	e3c11007 	bic	r1, r1, #7
    a23c:	e5da3000 	ldrb	r3, [sl]
    a240:	e04dd001 	sub	sp, sp, r1
    a244:	e28d1008 	add	r1, sp, #8
    a248:	e3530000 	cmp	r3, #0
    a24c:	e1a0c001 	mov	ip, r1
    a250:	0a000006 	beq	a270 <_nl_find_msg+0x7f0>
    a254:	e59f0370 	ldr	r0, [pc, #880]	; a5cc <_nl_find_msg+0xb4c>
    a258:	e590003c 	ldr	r0, [r0, #60]	; 0x3c
    a25c:	e7903103 	ldr	r3, [r0, r3, lsl #2]
    a260:	e4cc3001 	strb	r3, [ip], #1
    a264:	e5fa3001 	ldrb	r3, [sl, #1]!
    a268:	e3530000 	cmp	r3, #0
    a26c:	1afffffa 	bne	a25c <_nl_find_msg+0x7dc>
    a270:	e3520001 	cmp	r2, #1
    a274:	9a000064 	bls	a40c <_nl_find_msg+0x98c>
    a278:	e3a0e000 	mov	lr, #0
    a27c:	e1a00009 	mov	r0, r9
    a280:	e2882004 	add	r2, r8, #4
    a284:	e3a03001 	mov	r3, #1
    a288:	e5cce000 	strb	lr, [ip]
    a28c:	eb0062d3 	bl	22de0 <__gconv_open>
    a290:	e3500000 	cmp	r0, #0
    a294:	1a000065 	bne	a430 <_nl_find_msg+0x9b0>
    a298:	e3a02000 	mov	r2, #0
    a29c:	e596303c 	ldr	r3, [r6, #60]	; 0x3c
    a2a0:	e5882008 	str	r2, [r8, #8]
    a2a4:	e2833001 	add	r3, r3, #1
    a2a8:	e586303c 	str	r3, [r6, #60]	; 0x3c
    a2ac:	eaffff06 	b	9ecc <_nl_find_msg+0x44c>
    a2b0:	e59a3014 	ldr	r3, [sl, #20]
    a2b4:	e51b102c 	ldr	r1, [fp, #-44]	; 0x2c
    a2b8:	e5982008 	ldr	r2, [r8, #8]
    a2bc:	e51b5040 	ldr	r5, [fp, #-64]	; 0x40
    a2c0:	e0631001 	rsb	r1, r3, r1
    a2c4:	e2411004 	sub	r1, r1, #4
    a2c8:	e5831000 	str	r1, [r3]
    a2cc:	e7823105 	str	r3, [r2, r5, lsl #2]
    a2d0:	e51b202c 	ldr	r2, [fp, #-44]	; 0x2c
    a2d4:	e59a1018 	ldr	r1, [sl, #24]
    a2d8:	e0623003 	rsb	r3, r2, r3
    a2dc:	e0833001 	add	r3, r3, r1
    a2e0:	e2031003 	and	r1, r3, #3
    a2e4:	e0822001 	add	r2, r2, r1
    a2e8:	e3c33003 	bic	r3, r3, #3
    a2ec:	e1a05105 	lsl	r5, r5, #2
    a2f0:	e58a2014 	str	r2, [sl, #20]
    a2f4:	e58a3018 	str	r3, [sl, #24]
    a2f8:	e59a6010 	ldr	r6, [sl, #16]
    a2fc:	e3a01000 	mov	r1, #0
    a300:	e1a04006 	mov	r4, r6
    a304:	e59f22ac 	ldr	r2, [pc, #684]	; a5b8 <_nl_find_msg+0xb38>
    a308:	e5923000 	ldr	r3, [r2]
    a30c:	e1530004 	cmp	r3, r4
    a310:	1a000005 	bne	a32c <_nl_find_msg+0x8ac>
    a314:	e1a00004 	mov	r0, r4
    a318:	e3e03a0f 	mvn	r3, #61440	; 0xf000
    a31c:	e1a0e00f 	mov	lr, pc
    a320:	e243f03f 	sub	pc, r3, #63	; 0x3f
    a324:	3afffff7 	bcc	a308 <_nl_find_msg+0x888>
    a328:	e1a03004 	mov	r3, r4
    a32c:	e1560003 	cmp	r6, r3
    a330:	1afffff0 	bne	a2f8 <_nl_find_msg+0x878>
    a334:	e3560001 	cmp	r6, #1
    a338:	ca000054 	bgt	a490 <_nl_find_msg+0xa10>
    a33c:	e5983008 	ldr	r3, [r8, #8]
    a340:	e7934005 	ldr	r4, [r3, r5]
    a344:	eafffe75 	b	9d20 <_nl_find_msg+0x2a0>
    a348:	e59a5010 	ldr	r5, [sl, #16]
    a34c:	e3a01000 	mov	r1, #0
    a350:	e1a04005 	mov	r4, r5
    a354:	e59f225c 	ldr	r2, [pc, #604]	; a5b8 <_nl_find_msg+0xb38>
    a358:	e5923000 	ldr	r3, [r2]
    a35c:	e1530004 	cmp	r3, r4
    a360:	1a000005 	bne	a37c <_nl_find_msg+0x8fc>
    a364:	e1a00004 	mov	r0, r4
    a368:	e3e03a0f 	mvn	r3, #61440	; 0xf000
    a36c:	e1a0e00f 	mov	lr, pc
    a370:	e243f03f 	sub	pc, r3, #63	; 0x3f
    a374:	3afffff7 	bcc	a358 <_nl_find_msg+0x8d8>
    a378:	e1a03004 	mov	r3, r4
    a37c:	e1550003 	cmp	r5, r3
    a380:	1afffff0 	bne	a348 <_nl_find_msg+0x8c8>
    a384:	e3550001 	cmp	r5, #1
    a388:	dafffe69 	ble	9d34 <_nl_find_msg+0x2b4>
    a38c:	e1a00002 	mov	r0, r2
    a390:	e3a01081 	mov	r1, #129	; 0x81
    a394:	e3a02001 	mov	r2, #1
    a398:	e3a03000 	mov	r3, #0
    a39c:	e3a070f0 	mov	r7, #240	; 0xf0
    a3a0:	ef000000 	svc	0x00000000
    a3a4:	e3a00000 	mov	r0, #0
    a3a8:	eafffe62 	b	9d38 <_nl_find_msg+0x2b8>
    a3ac:	e50b104c 	str	r1, [fp, #-76]	; 0x4c
    a3b0:	eb004b36 	bl	1d090 <strlen>
    a3b4:	e2804001 	add	r4, r0, #1
    a3b8:	e1a00004 	mov	r0, r4
    a3bc:	eb00420b 	bl	1abf0 <__libc_malloc>
    a3c0:	e2508000 	subs	r8, r0, #0
    a3c4:	e51b104c 	ldr	r1, [fp, #-76]	; 0x4c
    a3c8:	0a000001 	beq	a3d4 <_nl_find_msg+0x954>
    a3cc:	e1a02004 	mov	r2, r4
    a3d0:	eb00502e 	bl	1e490 <memcpy>
    a3d4:	e1a04008 	mov	r4, r8
    a3d8:	e58a800c 	str	r8, [sl, #12]
    a3dc:	eaffff2f 	b	a0a0 <_nl_find_msg+0x620>
    a3e0:	e3a0302f 	mov	r3, #47	; 0x2f
    a3e4:	e35c0000 	cmp	ip, #0
    a3e8:	e5c03000 	strb	r3, [r0]
    a3ec:	12800001 	addne	r0, r0, #1
    a3f0:	1affff84 	bne	a208 <_nl_find_msg+0x788>
    a3f4:	e5c03001 	strb	r3, [r0, #1]
    a3f8:	e59f11d0 	ldr	r1, [pc, #464]	; a5d0 <_nl_find_msg+0xb50>
    a3fc:	e3a02008 	mov	r2, #8
    a400:	e2800002 	add	r0, r0, #2
    a404:	eb004ffd 	bl	1e400 <__mempcpy>
    a408:	eaffff7e 	b	a208 <_nl_find_msg+0x788>
    a40c:	e3a0302f 	mov	r3, #47	; 0x2f
    a410:	e3520000 	cmp	r2, #0
    a414:	e5cc3000 	strb	r3, [ip]
    a418:	05cc3001 	strbeq	r3, [ip, #1]
    a41c:	128cc001 	addne	ip, ip, #1
    a420:	028cc002 	addeq	ip, ip, #2
    a424:	eaffff93 	b	a278 <_nl_find_msg+0x7f8>
    a428:	e1a00009 	mov	r0, r9
    a42c:	eaffff73 	b	a200 <_nl_find_msg+0x780>
    a430:	e3700001 	cmn	r0, #1
    a434:	0a000008 	beq	a45c <_nl_find_msg+0x9dc>
    a438:	e59f1168 	ldr	r1, [pc, #360]	; a5a8 <_nl_find_msg+0xb28>
    a43c:	e3510000 	cmp	r1, #0
    a440:	0a000001 	beq	a44c <_nl_find_msg+0x9cc>
    a444:	e2860040 	add	r0, r6, #64	; 0x40
    a448:	e1a00000 	nop			; (mov r0, r0)
    a44c:	e1a00004 	mov	r0, r4
    a450:	eb0043d5 	bl	1b3ac <__cfree>
    a454:	e3a00000 	mov	r0, #0
    a458:	eafffe36 	b	9d38 <_nl_find_msg+0x2b8>
    a45c:	e5880004 	str	r0, [r8, #4]
    a460:	eaffff8c 	b	a298 <_nl_find_msg+0x818>
    a464:	e1a00002 	mov	r0, r2
    a468:	e3a01081 	mov	r1, #129	; 0x81
    a46c:	e3a02001 	mov	r2, #1
    a470:	e3a03000 	mov	r3, #0
    a474:	e3a070f0 	mov	r7, #240	; 0xf0
    a478:	ef000000 	svc	0x00000000
    a47c:	e3e00000 	mvn	r0, #0
    a480:	eafffe2c 	b	9d38 <_nl_find_msg+0x2b8>
    a484:	e1a00002 	mov	r0, r2
    a488:	eb005c29 	bl	21534 <__lll_lock_wait_private>
    a48c:	eafffea1 	b	9f18 <_nl_find_msg+0x498>
    a490:	e1a00002 	mov	r0, r2
    a494:	e3a01081 	mov	r1, #129	; 0x81
    a498:	e3a02001 	mov	r2, #1
    a49c:	e3a03000 	mov	r3, #0
    a4a0:	e3a070f0 	mov	r7, #240	; 0xf0
    a4a4:	ef000000 	svc	0x00000000
    a4a8:	eaffffa3 	b	a33c <_nl_find_msg+0x8bc>
    a4ac:	e3a01001 	mov	r1, #1
    a4b0:	e59f2100 	ldr	r2, [pc, #256]	; a5b8 <_nl_find_msg+0xb38>
    a4b4:	e5923000 	ldr	r3, [r2]
    a4b8:	e1530004 	cmp	r3, r4
    a4bc:	1a000005 	bne	a4d8 <_nl_find_msg+0xa58>
    a4c0:	e1a00004 	mov	r0, r4
    a4c4:	e3e03a0f 	mvn	r3, #61440	; 0xf000
    a4c8:	e1a0e00f 	mov	lr, pc
    a4cc:	e243f03f 	sub	pc, r3, #63	; 0x3f
    a4d0:	3afffff7 	bcc	a4b4 <_nl_find_msg+0xa34>
    a4d4:	e1a03004 	mov	r3, r4
    a4d8:	e3530000 	cmp	r3, #0
    a4dc:	0a000001 	beq	a4e8 <_nl_find_msg+0xa68>
    a4e0:	e1a00002 	mov	r0, r2
    a4e4:	eb005c12 	bl	21534 <__lll_lock_wait_private>
    a4e8:	e5983008 	ldr	r3, [r8, #8]
    a4ec:	e3530000 	cmp	r3, #0
    a4f0:	0a000019 	beq	a55c <_nl_find_msg+0xadc>
    a4f4:	e59fa0b0 	ldr	sl, [pc, #176]	; a5ac <_nl_find_msg+0xb2c>
    a4f8:	e59a6010 	ldr	r6, [sl, #16]
    a4fc:	e3a01000 	mov	r1, #0
    a500:	e1a04006 	mov	r4, r6
    a504:	e59f20ac 	ldr	r2, [pc, #172]	; a5b8 <_nl_find_msg+0xb38>
    a508:	e5923000 	ldr	r3, [r2]
    a50c:	e1530004 	cmp	r3, r4
    a510:	1a000005 	bne	a52c <_nl_find_msg+0xaac>
    a514:	e1a00004 	mov	r0, r4
    a518:	e3e03a0f 	mvn	r3, #61440	; 0xf000
    a51c:	e1a0e00f 	mov	lr, pc
    a520:	e243f03f 	sub	pc, r3, #63	; 0x3f
    a524:	3afffff7 	bcc	a508 <_nl_find_msg+0xa88>
    a528:	e1a03004 	mov	r3, r4
    a52c:	e1560003 	cmp	r6, r3
    a530:	1afffff0 	bne	a4f8 <_nl_find_msg+0xa78>
    a534:	e3560001 	cmp	r6, #1
    a538:	da000005 	ble	a554 <_nl_find_msg+0xad4>
    a53c:	e59f0074 	ldr	r0, [pc, #116]	; a5b8 <_nl_find_msg+0xb38>
    a540:	e3a01081 	mov	r1, #129	; 0x81
    a544:	e3a02001 	mov	r2, #1
    a548:	e3a03000 	mov	r3, #0
    a54c:	e3a070f0 	mov	r7, #240	; 0xf0
    a550:	ef000000 	svc	0x00000000
    a554:	e5984008 	ldr	r4, [r8, #8]
    a558:	eafffdeb 	b	9d0c <_nl_find_msg+0x28c>
    a55c:	e5960020 	ldr	r0, [r6, #32]
    a560:	e3a01004 	mov	r1, #4
    a564:	e0870000 	add	r0, r7, r0
    a568:	eb004465 	bl	1b704 <__calloc>
    a56c:	e3500000 	cmp	r0, #0
    a570:	e5880008 	str	r0, [r8, #8]
    a574:	1afffe67 	bne	9f18 <_nl_find_msg+0x498>
    a578:	e3e03000 	mvn	r3, #0
    a57c:	e5883008 	str	r3, [r8, #8]
    a580:	eaffffdb 	b	a4f4 <_nl_find_msg+0xa74>
    a584:	e59fe01c 	ldr	lr, [pc, #28]	; a5a8 <_nl_find_msg+0xb28>
    a588:	e35e0000 	cmp	lr, #0
    a58c:	0afffeb9 	beq	a078 <_nl_find_msg+0x5f8>
    a590:	e2860040 	add	r0, r6, #64	; 0x40
    a594:	e1a00000 	nop			; (mov r0, r0)
    a598:	eafffeb6 	b	a078 <_nl_find_msg+0x5f8>
    a59c:	e3a02000 	mov	r2, #0
    a5a0:	eafffef5 	b	a17c <_nl_find_msg+0x6fc>
	...
    a5ac:	0008a104 	.word	0x0008a104
    a5b0:	0007f1e0 	.word	0x0007f1e0
    a5b4:	00000000 	.word	0x00000000
    a5b8:	0008a114 	.word	0x0008a114
    a5bc:	00000fec 	.word	0x00000fec
    a5c0:	00069d78 	.word	0x00069d78
    a5c4:	0007d170 	.word	0x0007d170
    a5c8:	00069d88 	.word	0x00069d88
    a5cc:	00079604 	.word	0x00079604
    a5d0:	0006bca8 	.word	0x0006bca8

0000a5d4 <__dcigettext>:
    a5d4:	e92d4ff0 	push	{r4, r5, r6, r7, r8, r9, sl, fp, lr}
    a5d8:	e2518000 	subs	r8, r1, #0
    a5dc:	e28db020 	add	fp, sp, #32
    a5e0:	e24dd064 	sub	sp, sp, #100	; 0x64
    a5e4:	e50b005c 	str	r0, [fp, #-92]	; 0x5c
    a5e8:	e50b2068 	str	r2, [fp, #-104]	; 0x68
    a5ec:	e50b3060 	str	r3, [fp, #-96]	; 0x60
    a5f0:	0a000112 	beq	aa40 <__dcigettext+0x46c>
    a5f4:	e59b0008 	ldr	r0, [fp, #8]
    a5f8:	e2403006 	sub	r3, r0, #6
    a5fc:	e16f3f13 	clz	r3, r3
    a600:	e1a032a3 	lsr	r3, r3, #5
    a604:	e350000c 	cmp	r0, #12
    a608:	83833001 	orrhi	r3, r3, #1
    a60c:	e3530000 	cmp	r3, #0
    a610:	1a0000f2 	bne	a9e0 <__dcigettext+0x40c>
    a614:	e59f46cc 	ldr	r4, [pc, #1740]	; ace8 <__dcigettext+0x714>
    a618:	e3540000 	cmp	r4, #0
    a61c:	0a000003 	beq	a630 <__dcigettext+0x5c>
    a620:	e59f06c4 	ldr	r0, [pc, #1732]	; acec <__dcigettext+0x718>
    a624:	e1a00000 	nop			; (mov r0, r0)
    a628:	e59f06c0 	ldr	r0, [pc, #1728]	; acf0 <__dcigettext+0x71c>
    a62c:	e1a00000 	nop			; (mov r0, r0)
    a630:	e51b305c 	ldr	r3, [fp, #-92]	; 0x5c
    a634:	e59b0008 	ldr	r0, [fp, #8]
    a638:	e3530000 	cmp	r3, #0
    a63c:	059f36b0 	ldreq	r3, [pc, #1712]	; acf4 <__dcigettext+0x720>
    a640:	e50b8028 	str	r8, [fp, #-40]	; 0x28
    a644:	05933000 	ldreq	r3, [r3]
    a648:	e50b0040 	str	r0, [fp, #-64]	; 0x40
    a64c:	050b305c 	streq	r3, [fp, #-92]	; 0x5c
    a650:	e3a03000 	mov	r3, #0
    a654:	e51bc05c 	ldr	ip, [fp, #-92]	; 0x5c
    a658:	e50b3034 	str	r3, [fp, #-52]	; 0x34
    a65c:	e50bc044 	str	ip, [fp, #-68]	; 0x44
    a660:	eb0090a1 	bl	2e8ec <__current_locale_name>
    a664:	e1a05000 	mov	r5, r0
    a668:	eb004a88 	bl	1d090 <strlen>
    a66c:	e280300f 	add	r3, r0, #15
    a670:	e3c33007 	bic	r3, r3, #7
    a674:	e04dd003 	sub	sp, sp, r3
    a678:	e2802001 	add	r2, r0, #1
    a67c:	e1a01005 	mov	r1, r5
    a680:	e28d0008 	add	r0, sp, #8
    a684:	eb004f81 	bl	1e490 <memcpy>
    a688:	e3540000 	cmp	r4, #0
    a68c:	e50b006c 	str	r0, [fp, #-108]	; 0x6c
    a690:	e50b003c 	str	r0, [fp, #-60]	; 0x3c
    a694:	0a000001 	beq	a6a0 <__dcigettext+0xcc>
    a698:	e59f0658 	ldr	r0, [pc, #1624]	; acf8 <__dcigettext+0x724>
    a69c:	e1a00000 	nop			; (mov r0, r0)
    a6a0:	e59f2654 	ldr	r2, [pc, #1620]	; acfc <__dcigettext+0x728>
    a6a4:	e24b0044 	sub	r0, fp, #68	; 0x44
    a6a8:	e59f1650 	ldr	r1, [pc, #1616]	; ad00 <__dcigettext+0x72c>
    a6ac:	eb00585c 	bl	20824 <__tfind>
    a6b0:	e59f264c 	ldr	r2, [pc, #1612]	; ad04 <__dcigettext+0x730>
    a6b4:	e50b0064 	str	r0, [fp, #-100]	; 0x64
    a6b8:	e3520000 	cmp	r2, #0
    a6bc:	0a000001 	beq	a6c8 <__dcigettext+0xf4>
    a6c0:	e59f0630 	ldr	r0, [pc, #1584]	; acf8 <__dcigettext+0x724>
    a6c4:	e1a00000 	nop			; (mov r0, r0)
    a6c8:	e51b3064 	ldr	r3, [fp, #-100]	; 0x64
    a6cc:	e3530000 	cmp	r3, #0
    a6d0:	0a000005 	beq	a6ec <__dcigettext+0x118>
    a6d4:	e5933000 	ldr	r3, [r3]
    a6d8:	e59f2628 	ldr	r2, [pc, #1576]	; ad08 <__dcigettext+0x734>
    a6dc:	e593100c 	ldr	r1, [r3, #12]
    a6e0:	e5922000 	ldr	r2, [r2]
    a6e4:	e1510002 	cmp	r1, r2
    a6e8:	0a000116 	beq	ab48 <__dcigettext+0x574>
    a6ec:	e59f2618 	ldr	r2, [pc, #1560]	; ad0c <__dcigettext+0x738>
    a6f0:	e59f3618 	ldr	r3, [pc, #1560]	; ad10 <__dcigettext+0x73c>
    a6f4:	ebfffbb9 	bl	95e0 <__aeabi_read_tp>
    a6f8:	e79f3003 	ldr	r3, [pc, r3]
    a6fc:	e5925000 	ldr	r5, [r2]
    a700:	e7903003 	ldr	r3, [r0, r3]
    a704:	e3550000 	cmp	r5, #0
    a708:	e50b3074 	str	r3, [fp, #-116]	; 0x74
    a70c:	0a000106 	beq	ab2c <__dcigettext+0x558>
    a710:	e51b405c 	ldr	r4, [fp, #-92]	; 0x5c
    a714:	ea000003 	b	a728 <__dcigettext+0x154>
    a718:	ba000106 	blt	ab38 <__dcigettext+0x564>
    a71c:	e5955000 	ldr	r5, [r5]
    a720:	e3550000 	cmp	r5, #0
    a724:	0a000100 	beq	ab2c <__dcigettext+0x558>
    a728:	e1a00004 	mov	r0, r4
    a72c:	e285100c 	add	r1, r5, #12
    a730:	eb004a3a 	bl	1d020 <strcmp>
    a734:	e3500000 	cmp	r0, #0
    a738:	1afffff6 	bne	a718 <__dcigettext+0x144>
    a73c:	e595c004 	ldr	ip, [r5, #4]
    a740:	e1a07000 	mov	r7, r0
    a744:	e5dc3000 	ldrb	r3, [ip]
    a748:	e50bc054 	str	ip, [fp, #-84]	; 0x54
    a74c:	e353002f 	cmp	r3, #47	; 0x2f
    a750:	0a000026 	beq	a7f0 <__dcigettext+0x21c>
    a754:	e51b0054 	ldr	r0, [fp, #-84]	; 0x54
    a758:	eb004a4c 	bl	1d090 <strlen>
    a75c:	e59fa5b0 	ldr	sl, [pc, #1456]	; ad14 <__dcigettext+0x740>
    a760:	e59f65b0 	ldr	r6, [pc, #1456]	; ad18 <__dcigettext+0x744>
    a764:	e2804001 	add	r4, r0, #1
    a768:	e50b5050 	str	r5, [fp, #-80]	; 0x50
    a76c:	ea000006 	b	a78c <__dcigettext+0x1b8>
    a770:	e59f15a4 	ldr	r1, [pc, #1444]	; ad1c <__dcigettext+0x748>
    a774:	e08aa0aa 	add	sl, sl, sl, lsr #1
    a778:	e79f2001 	ldr	r2, [pc, r1]
    a77c:	e7953002 	ldr	r3, [r5, r2]
    a780:	e3530022 	cmp	r3, #34	; 0x22
    a784:	1a00009e 	bne	aa04 <__dcigettext+0x430>
    a788:	e28aa020 	add	sl, sl, #32
    a78c:	ebfffb93 	bl	95e0 <__aeabi_read_tp>
    a790:	e1a05000 	mov	r5, r0
    a794:	e08a2004 	add	r2, sl, r4
    a798:	e282200e 	add	r2, r2, #14
    a79c:	e3c22007 	bic	r2, r2, #7
    a7a0:	e04dd002 	sub	sp, sp, r2
    a7a4:	e28d9008 	add	r9, sp, #8
    a7a8:	e79f2006 	ldr	r2, [pc, r6]
    a7ac:	e1a00009 	mov	r0, r9
    a7b0:	e1a0100a 	mov	r1, sl
    a7b4:	e7857002 	str	r7, [r5, r2]
    a7b8:	eb0054ca 	bl	1fae8 <__getcwd>
    a7bc:	e3500000 	cmp	r0, #0
    a7c0:	0affffea 	beq	a770 <__dcigettext+0x19c>
    a7c4:	e3a01000 	mov	r1, #0
    a7c8:	e1a00009 	mov	r0, r9
    a7cc:	e50b9054 	str	r9, [fp, #-84]	; 0x54
    a7d0:	eb004fd6 	bl	1e730 <__rawmemchr>
    a7d4:	e59f1544 	ldr	r1, [pc, #1348]	; ad20 <__dcigettext+0x74c>
    a7d8:	e3a02002 	mov	r2, #2
    a7dc:	e51b5050 	ldr	r5, [fp, #-80]	; 0x50
    a7e0:	eb004f2a 	bl	1e490 <memcpy>
    a7e4:	e5951004 	ldr	r1, [r5, #4]
    a7e8:	e2800001 	add	r0, r0, #1
    a7ec:	eb004a15 	bl	1d048 <strcpy>
    a7f0:	e59b0008 	ldr	r0, [fp, #8]
    a7f4:	e59f2528 	ldr	r2, [pc, #1320]	; ad24 <__dcigettext+0x750>
    a7f8:	e59f3528 	ldr	r3, [pc, #1320]	; ad28 <__dcigettext+0x754>
    a7fc:	e7d26000 	ldrb	r6, [r2, r0]
    a800:	e59f0524 	ldr	r0, [pc, #1316]	; ad2c <__dcigettext+0x758>
    a804:	e0866003 	add	r6, r6, r3
    a808:	eb001025 	bl	e8a4 <getenv>
    a80c:	e2507000 	subs	r7, r0, #0
    a810:	0a0000c1 	beq	ab1c <__dcigettext+0x548>
    a814:	e5d73000 	ldrb	r3, [r7]
    a818:	e3530000 	cmp	r3, #0
    a81c:	0a0000be 	beq	ab1c <__dcigettext+0x548>
    a820:	e59b0008 	ldr	r0, [fp, #8]
    a824:	eb009030 	bl	2e8ec <__current_locale_name>
    a828:	e5d03000 	ldrb	r3, [r0]
    a82c:	e1a04000 	mov	r4, r0
    a830:	e3530043 	cmp	r3, #67	; 0x43
    a834:	11a04007 	movne	r4, r7
    a838:	1a000002 	bne	a848 <__dcigettext+0x274>
    a83c:	e5d43001 	ldrb	r3, [r4, #1]
    a840:	e3530000 	cmp	r3, #0
    a844:	11a04007 	movne	r4, r7
    a848:	e51b005c 	ldr	r0, [fp, #-92]	; 0x5c
    a84c:	eb004a0f 	bl	1d090 <strlen>
    a850:	e50b0070 	str	r0, [fp, #-112]	; 0x70
    a854:	e1a00006 	mov	r0, r6
    a858:	eb004a0c 	bl	1d090 <strlen>
    a85c:	e51bc070 	ldr	ip, [fp, #-112]	; 0x70
    a860:	e1a01006 	mov	r1, r6
    a864:	e08c0000 	add	r0, ip, r0
    a868:	e2803013 	add	r3, r0, #19
    a86c:	e3c33007 	bic	r3, r3, #7
    a870:	e04dd003 	sub	sp, sp, r3
    a874:	e28dc008 	add	ip, sp, #8
    a878:	e1a0000c 	mov	r0, ip
    a87c:	e50bc058 	str	ip, [fp, #-88]	; 0x58
    a880:	eb004ee3 	bl	1e414 <__stpcpy>
    a884:	e59f1494 	ldr	r1, [pc, #1172]	; ad20 <__dcigettext+0x74c>
    a888:	e3a02002 	mov	r2, #2
    a88c:	eb004eff 	bl	1e490 <memcpy>
    a890:	e51b2070 	ldr	r2, [fp, #-112]	; 0x70
    a894:	e51b105c 	ldr	r1, [fp, #-92]	; 0x5c
    a898:	e2800001 	add	r0, r0, #1
    a89c:	eb004ed7 	bl	1e400 <__mempcpy>
    a8a0:	e59f1488 	ldr	r1, [pc, #1160]	; ad30 <__dcigettext+0x75c>
    a8a4:	e3a02004 	mov	r2, #4
    a8a8:	eb004ef8 	bl	1e490 <memcpy>
    a8ac:	e1a00004 	mov	r0, r4
    a8b0:	eb0049f6 	bl	1d090 <strlen>
    a8b4:	e280000f 	add	r0, r0, #15
    a8b8:	e3c03007 	bic	r3, r0, #7
    a8bc:	e04dd003 	sub	sp, sp, r3
    a8c0:	e28d6008 	add	r6, sp, #8
    a8c4:	e24b9048 	sub	r9, fp, #72	; 0x48
    a8c8:	e5d4c000 	ldrb	ip, [r4]
    a8cc:	e35c003a 	cmp	ip, #58	; 0x3a
    a8d0:	0a000074 	beq	aaa8 <__dcigettext+0x4d4>
    a8d4:	e35c0000 	cmp	ip, #0
    a8d8:	12843001 	addne	r3, r4, #1
    a8dc:	11a0e006 	movne	lr, r6
    a8e0:	1a000059 	bne	aa4c <__dcigettext+0x478>
    a8e4:	e3a00043 	mov	r0, #67	; 0x43
    a8e8:	e5c6c001 	strb	ip, [r6, #1]
    a8ec:	e5c60000 	strb	r0, [r6]
    a8f0:	e5d63001 	ldrb	r3, [r6, #1]
    a8f4:	e3530000 	cmp	r3, #0
    a8f8:	0a000041 	beq	aa04 <__dcigettext+0x430>
    a8fc:	e1a00006 	mov	r0, r6
    a900:	e59f142c 	ldr	r1, [pc, #1068]	; ad34 <__dcigettext+0x760>
    a904:	eb0049c5 	bl	1d020 <strcmp>
    a908:	e3500000 	cmp	r0, #0
    a90c:	0a00003c 	beq	aa04 <__dcigettext+0x430>
    a910:	e1a01006 	mov	r1, r6
    a914:	e51b0054 	ldr	r0, [fp, #-84]	; 0x54
    a918:	e51b2058 	ldr	r2, [fp, #-88]	; 0x58
    a91c:	e1a03005 	mov	r3, r5
    a920:	eb000109 	bl	ad4c <_nl_find_domain>
    a924:	e2501000 	subs	r1, r0, #0
    a928:	e50b1050 	str	r1, [fp, #-80]	; 0x50
    a92c:	0affffe5 	beq	a8c8 <__dcigettext+0x2f4>
    a930:	e3a03001 	mov	r3, #1
    a934:	e58d9000 	str	r9, [sp]
    a938:	e1a01005 	mov	r1, r5
    a93c:	e1a02008 	mov	r2, r8
    a940:	ebfffc4e 	bl	9a80 <_nl_find_msg>
    a944:	e2503000 	subs	r3, r0, #0
    a948:	0a000058 	beq	aab0 <__dcigettext+0x4dc>
    a94c:	e3730001 	cmn	r3, #1
    a950:	0a00002b 	beq	aa04 <__dcigettext+0x430>
    a954:	e51b1064 	ldr	r1, [fp, #-100]	; 0x64
    a958:	e3510000 	cmp	r1, #0
    a95c:	0a000097 	beq	abc0 <__dcigettext+0x5ec>
    a960:	e51b1064 	ldr	r1, [fp, #-100]	; 0x64
    a964:	e51bc050 	ldr	ip, [fp, #-80]	; 0x50
    a968:	e5912000 	ldr	r2, [r1]
    a96c:	e59f1394 	ldr	r1, [pc, #916]	; ad08 <__dcigettext+0x734>
    a970:	e582c010 	str	ip, [r2, #16]
    a974:	e51bc064 	ldr	ip, [fp, #-100]	; 0x64
    a978:	e5910000 	ldr	r0, [r1]
    a97c:	e59c1000 	ldr	r1, [ip]
    a980:	e582000c 	str	r0, [r2, #12]
    a984:	e5813014 	str	r3, [r1, #20]
    a988:	e59c2000 	ldr	r2, [ip]
    a98c:	e51b1048 	ldr	r1, [fp, #-72]	; 0x48
    a990:	e5821018 	str	r1, [r2, #24]
    a994:	e59f239c 	ldr	r2, [pc, #924]	; ad38 <__dcigettext+0x764>
    a998:	e51b1060 	ldr	r1, [fp, #-96]	; 0x60
    a99c:	ebfffb0f 	bl	95e0 <__aeabi_read_tp>
    a9a0:	e51bc074 	ldr	ip, [fp, #-116]	; 0x74
    a9a4:	e79f2002 	ldr	r2, [pc, r2]
    a9a8:	e3510000 	cmp	r1, #0
    a9ac:	e780c002 	str	ip, [r0, r2]
    a9b0:	1a00007a 	bne	aba0 <__dcigettext+0x5cc>
    a9b4:	e59f2348 	ldr	r2, [pc, #840]	; ad04 <__dcigettext+0x730>
    a9b8:	e3520000 	cmp	r2, #0
    a9bc:	0a0000c7 	beq	ace0 <__dcigettext+0x70c>
    a9c0:	e59f0324 	ldr	r0, [pc, #804]	; acec <__dcigettext+0x718>
    a9c4:	e50b3078 	str	r3, [fp, #-120]	; 0x78
    a9c8:	e1a00000 	nop			; (mov r0, r0)
    a9cc:	e59f031c 	ldr	r0, [pc, #796]	; acf0 <__dcigettext+0x71c>
    a9d0:	e1a00000 	nop			; (mov r0, r0)
    a9d4:	e51b3078 	ldr	r3, [fp, #-120]	; 0x78
    a9d8:	e1a00003 	mov	r0, r3
    a9dc:	ea000006 	b	a9fc <__dcigettext+0x428>
    a9e0:	e51b1060 	ldr	r1, [fp, #-96]	; 0x60
    a9e4:	e3510000 	cmp	r1, #0
    a9e8:	0a000014 	beq	aa40 <__dcigettext+0x46c>
    a9ec:	e59b2004 	ldr	r2, [fp, #4]
    a9f0:	e3520001 	cmp	r2, #1
    a9f4:	0a000011 	beq	aa40 <__dcigettext+0x46c>
    a9f8:	e51b0068 	ldr	r0, [fp, #-104]	; 0x68
    a9fc:	e24bd020 	sub	sp, fp, #32
    aa00:	e8bd8ff0 	pop	{r4, r5, r6, r7, r8, r9, sl, fp, pc}
    aa04:	e59f22f8 	ldr	r2, [pc, #760]	; ad04 <__dcigettext+0x730>
    aa08:	e3520000 	cmp	r2, #0
    aa0c:	0a000003 	beq	aa20 <__dcigettext+0x44c>
    aa10:	e59f02d4 	ldr	r0, [pc, #724]	; acec <__dcigettext+0x718>
    aa14:	e1a00000 	nop			; (mov r0, r0)
    aa18:	e59f02d0 	ldr	r0, [pc, #720]	; acf0 <__dcigettext+0x71c>
    aa1c:	e1a00000 	nop			; (mov r0, r0)
    aa20:	e59f3314 	ldr	r3, [pc, #788]	; ad3c <__dcigettext+0x768>
    aa24:	e51b2060 	ldr	r2, [fp, #-96]	; 0x60
    aa28:	ebfffaec 	bl	95e0 <__aeabi_read_tp>
    aa2c:	e51bc074 	ldr	ip, [fp, #-116]	; 0x74
    aa30:	e79f3003 	ldr	r3, [pc, r3]
    aa34:	e3520000 	cmp	r2, #0
    aa38:	e780c003 	str	ip, [r0, r3]
    aa3c:	1affffea 	bne	a9ec <__dcigettext+0x418>
    aa40:	e1a00008 	mov	r0, r8
    aa44:	e24bd020 	sub	sp, fp, #32
    aa48:	e8bd8ff0 	pop	{r4, r5, r6, r7, r8, r9, sl, fp, pc}
    aa4c:	e4cec001 	strb	ip, [lr], #1
    aa50:	e5d3c000 	ldrb	ip, [r3]
    aa54:	e1a04003 	mov	r4, r3
    aa58:	e35c003a 	cmp	ip, #58	; 0x3a
    aa5c:	135c0000 	cmpne	ip, #0
    aa60:	e2833001 	add	r3, r3, #1
    aa64:	13a02001 	movne	r2, #1
    aa68:	03a02000 	moveq	r2, #0
    aa6c:	1afffff6 	bne	aa4c <__dcigettext+0x478>
    aa70:	e59f12c8 	ldr	r1, [pc, #712]	; ad40 <__dcigettext+0x76c>
    aa74:	e5ce2000 	strb	r2, [lr]
    aa78:	e5913000 	ldr	r3, [r1]
    aa7c:	e3530000 	cmp	r3, #0
    aa80:	0a000004 	beq	aa98 <__dcigettext+0x4c4>
    aa84:	e1a00006 	mov	r0, r6
    aa88:	e3a0102f 	mov	r1, #47	; 0x2f
    aa8c:	eb00491c 	bl	1cf04 <strchr>
    aa90:	e3500000 	cmp	r0, #0
    aa94:	1affff8b 	bne	a8c8 <__dcigettext+0x2f4>
    aa98:	e5d63000 	ldrb	r3, [r6]
    aa9c:	e3530043 	cmp	r3, #67	; 0x43
    aaa0:	1affff95 	bne	a8fc <__dcigettext+0x328>
    aaa4:	eaffff91 	b	a8f0 <__dcigettext+0x31c>
    aaa8:	e2844001 	add	r4, r4, #1
    aaac:	eaffff85 	b	a8c8 <__dcigettext+0x2f4>
    aab0:	e51b2050 	ldr	r2, [fp, #-80]	; 0x50
    aab4:	e5920010 	ldr	r0, [r2, #16]
    aab8:	e3500000 	cmp	r0, #0
    aabc:	0affff81 	beq	a8c8 <__dcigettext+0x2f4>
    aac0:	e1a0a003 	mov	sl, r3
    aac4:	e1a07002 	mov	r7, r2
    aac8:	ea000003 	b	aadc <__dcigettext+0x508>
    aacc:	e5970010 	ldr	r0, [r7, #16]
    aad0:	e28aa001 	add	sl, sl, #1
    aad4:	e3500000 	cmp	r0, #0
    aad8:	0affff7a 	beq	a8c8 <__dcigettext+0x2f4>
    aadc:	e58d9000 	str	r9, [sp]
    aae0:	e1a01005 	mov	r1, r5
    aae4:	e1a02008 	mov	r2, r8
    aae8:	e3a03001 	mov	r3, #1
    aaec:	ebfffbe3 	bl	9a80 <_nl_find_msg>
    aaf0:	e3700001 	cmn	r0, #1
    aaf4:	e2877004 	add	r7, r7, #4
    aaf8:	0affffc1 	beq	aa04 <__dcigettext+0x430>
    aafc:	e3500000 	cmp	r0, #0
    ab00:	0afffff1 	beq	aacc <__dcigettext+0x4f8>
    ab04:	e1a03000 	mov	r3, r0
    ab08:	e51b0050 	ldr	r0, [fp, #-80]	; 0x50
    ab0c:	e28ac004 	add	ip, sl, #4
    ab10:	e790c10c 	ldr	ip, [r0, ip, lsl #2]
    ab14:	e50bc050 	str	ip, [fp, #-80]	; 0x50
    ab18:	eaffff8d 	b	a954 <__dcigettext+0x380>
    ab1c:	e59b0008 	ldr	r0, [fp, #8]
    ab20:	eb008f71 	bl	2e8ec <__current_locale_name>
    ab24:	e1a04000 	mov	r4, r0
    ab28:	eaffff46 	b	a848 <__dcigettext+0x274>
    ab2c:	e59fc210 	ldr	ip, [pc, #528]	; ad44 <__dcigettext+0x770>
    ab30:	e50bc054 	str	ip, [fp, #-84]	; 0x54
    ab34:	eaffff2d 	b	a7f0 <__dcigettext+0x21c>
    ab38:	e59fc204 	ldr	ip, [pc, #516]	; ad44 <__dcigettext+0x770>
    ab3c:	e3a05000 	mov	r5, #0
    ab40:	e50bc054 	str	ip, [fp, #-84]	; 0x54
    ab44:	eaffff29 	b	a7f0 <__dcigettext+0x21c>
    ab48:	e51bc060 	ldr	ip, [fp, #-96]	; 0x60
    ab4c:	e35c0000 	cmp	ip, #0
    ab50:	05938014 	ldreq	r8, [r3, #20]
    ab54:	1a000009 	bne	ab80 <__dcigettext+0x5ac>
    ab58:	e59f01a4 	ldr	r0, [pc, #420]	; ad04 <__dcigettext+0x730>
    ab5c:	e3500000 	cmp	r0, #0
    ab60:	0affffb6 	beq	aa40 <__dcigettext+0x46c>
    ab64:	e59f0180 	ldr	r0, [pc, #384]	; acec <__dcigettext+0x718>
    ab68:	e1a00000 	nop			; (mov r0, r0)
    ab6c:	e59f017c 	ldr	r0, [pc, #380]	; acf0 <__dcigettext+0x71c>
    ab70:	e1a00000 	nop			; (mov r0, r0)
    ab74:	e1a00008 	mov	r0, r8
    ab78:	e24bd020 	sub	sp, fp, #32
    ab7c:	e8bd8ff0 	pop	{r4, r5, r6, r7, r8, r9, sl, fp, pc}
    ab80:	e5932010 	ldr	r2, [r3, #16]
    ab84:	e59b1004 	ldr	r1, [fp, #4]
    ab88:	e5920008 	ldr	r0, [r2, #8]
    ab8c:	e5932014 	ldr	r2, [r3, #20]
    ab90:	e5933018 	ldr	r3, [r3, #24]
    ab94:	ebfffba1 	bl	9a20 <plural_lookup.isra.1>
    ab98:	e1a08000 	mov	r8, r0
    ab9c:	eaffffed 	b	ab58 <__dcigettext+0x584>
    aba0:	e51b1050 	ldr	r1, [fp, #-80]	; 0x50
    aba4:	e1a02003 	mov	r2, r3
    aba8:	e5910008 	ldr	r0, [r1, #8]
    abac:	e51b3048 	ldr	r3, [fp, #-72]	; 0x48
    abb0:	e59b1004 	ldr	r1, [fp, #4]
    abb4:	ebfffb99 	bl	9a20 <plural_lookup.isra.1>
    abb8:	e1a03000 	mov	r3, r0
    abbc:	eaffff7c 	b	a9b4 <__dcigettext+0x3e0>
    abc0:	e1a00008 	mov	r0, r8
    abc4:	e50b3078 	str	r3, [fp, #-120]	; 0x78
    abc8:	eb004930 	bl	1d090 <strlen>
    abcc:	e2805001 	add	r5, r0, #1
    abd0:	e51b006c 	ldr	r0, [fp, #-108]	; 0x6c
    abd4:	eb00492d 	bl	1d090 <strlen>
    abd8:	e1a04000 	mov	r4, r0
    abdc:	e51bc070 	ldr	ip, [fp, #-112]	; 0x70
    abe0:	e28c001e 	add	r0, ip, #30
    abe4:	e0800004 	add	r0, r0, r4
    abe8:	e0800005 	add	r0, r0, r5
    abec:	eb003fff 	bl	1abf0 <__libc_malloc>
    abf0:	e2506000 	subs	r6, r0, #0
    abf4:	e51b3078 	ldr	r3, [fp, #-120]	; 0x78
    abf8:	0affff65 	beq	a994 <__dcigettext+0x3c0>
    abfc:	e1a02005 	mov	r2, r5
    ac00:	e1a01008 	mov	r1, r8
    ac04:	e286001c 	add	r0, r6, #28
    ac08:	eb004dfc 	bl	1e400 <__mempcpy>
    ac0c:	e1a07000 	mov	r7, r0
    ac10:	e51bc070 	ldr	ip, [fp, #-112]	; 0x70
    ac14:	e51b105c 	ldr	r1, [fp, #-92]	; 0x5c
    ac18:	e28c5001 	add	r5, ip, #1
    ac1c:	e1a02005 	mov	r2, r5
    ac20:	e0805005 	add	r5, r0, r5
    ac24:	eb004e19 	bl	1e490 <memcpy>
    ac28:	e51b106c 	ldr	r1, [fp, #-108]	; 0x6c
    ac2c:	e2842001 	add	r2, r4, #1
    ac30:	e1a00005 	mov	r0, r5
    ac34:	eb004e15 	bl	1e490 <memcpy>
    ac38:	e59f20c8 	ldr	r2, [pc, #200]	; ad08 <__dcigettext+0x734>
    ac3c:	e59f0104 	ldr	r0, [pc, #260]	; ad48 <__dcigettext+0x774>
    ac40:	e51b3078 	ldr	r3, [fp, #-120]	; 0x78
    ac44:	e5921000 	ldr	r1, [r2]
    ac48:	e3500000 	cmp	r0, #0
    ac4c:	e51b2048 	ldr	r2, [fp, #-72]	; 0x48
    ac50:	e59b0008 	ldr	r0, [fp, #8]
    ac54:	e51bc050 	ldr	ip, [fp, #-80]	; 0x50
    ac58:	e5865008 	str	r5, [r6, #8]
    ac5c:	e5867000 	str	r7, [r6]
    ac60:	e5860004 	str	r0, [r6, #4]
    ac64:	e586c010 	str	ip, [r6, #16]
    ac68:	e5863014 	str	r3, [r6, #20]
    ac6c:	e586100c 	str	r1, [r6, #12]
    ac70:	e5862018 	str	r2, [r6, #24]
    ac74:	0a000002 	beq	ac84 <__dcigettext+0x6b0>
    ac78:	e59f0078 	ldr	r0, [pc, #120]	; acf8 <__dcigettext+0x724>
    ac7c:	e1a00000 	nop			; (mov r0, r0)
    ac80:	e51b3078 	ldr	r3, [fp, #-120]	; 0x78
    ac84:	e1a00006 	mov	r0, r6
    ac88:	e59f1070 	ldr	r1, [pc, #112]	; ad00 <__dcigettext+0x72c>
    ac8c:	e59f2068 	ldr	r2, [pc, #104]	; acfc <__dcigettext+0x728>
    ac90:	e50b3078 	str	r3, [fp, #-120]	; 0x78
    ac94:	eb005693 	bl	206e8 <__tsearch>
    ac98:	e1a04000 	mov	r4, r0
    ac9c:	e59f0060 	ldr	r0, [pc, #96]	; ad04 <__dcigettext+0x730>
    aca0:	e51b3078 	ldr	r3, [fp, #-120]	; 0x78
    aca4:	e3500000 	cmp	r0, #0
    aca8:	0a000002 	beq	acb8 <__dcigettext+0x6e4>
    acac:	e59f0044 	ldr	r0, [pc, #68]	; acf8 <__dcigettext+0x724>
    acb0:	e1a00000 	nop			; (mov r0, r0)
    acb4:	e51b3078 	ldr	r3, [fp, #-120]	; 0x78
    acb8:	e3540000 	cmp	r4, #0
    acbc:	0a000002 	beq	accc <__dcigettext+0x6f8>
    acc0:	e5942000 	ldr	r2, [r4]
    acc4:	e1560002 	cmp	r6, r2
    acc8:	0affff31 	beq	a994 <__dcigettext+0x3c0>
    accc:	e1a00006 	mov	r0, r6
    acd0:	e50b3078 	str	r3, [fp, #-120]	; 0x78
    acd4:	eb0041b4 	bl	1b3ac <__cfree>
    acd8:	e51b3078 	ldr	r3, [fp, #-120]	; 0x78
    acdc:	eaffff2c 	b	a994 <__dcigettext+0x3c0>
    ace0:	e1a00003 	mov	r0, r3
    ace4:	eaffff44 	b	a9fc <__dcigettext+0x428>
    ace8:	00000000 	.word	0x00000000
    acec:	0008aa14 	.word	0x0008aa14
    acf0:	0008a120 	.word	0x0008a120
    acf4:	0008907c 	.word	0x0008907c
    acf8:	0008a140 	.word	0x0008a140
    acfc:	000099b4 	.word	0x000099b4
    ad00:	0008a104 	.word	0x0008a104
    ad04:	00000000 	.word	0x00000000
    ad08:	0008aed8 	.word	0x0008aed8
    ad0c:	0008aed4 	.word	0x0008aed4
    ad10:	0007e940 	.word	0x0007e940
    ad14:	00001002 	.word	0x00001002
    ad18:	0007e890 	.word	0x0007e890
    ad1c:	0007e8c0 	.word	0x0007e8c0
    ad20:	0006c80c 	.word	0x0006c80c
    ad24:	0006d008 	.word	0x0006d008
    ad28:	0006d018 	.word	0x0006d018
    ad2c:	00069d94 	.word	0x00069d94
    ad30:	00069da0 	.word	0x00069da0
    ad34:	00069da4 	.word	0x00069da4
    ad38:	0007e694 	.word	0x0007e694
    ad3c:	0007e608 	.word	0x0007e608
    ad40:	00088fdc 	.word	0x00088fdc
    ad44:	00069dac 	.word	0x00069dac
    ad48:	00000000 	.word	0x00000000

0000ad4c <_nl_find_domain>:
    ad4c:	e92d4ff0 	push	{r4, r5, r6, r7, r8, r9, sl, fp, lr}
    ad50:	e59fc270 	ldr	ip, [pc, #624]	; afc8 <_nl_find_domain+0x27c>
    ad54:	e28db020 	add	fp, sp, #32
    ad58:	e35c0000 	cmp	ip, #0
    ad5c:	e24dd03c 	sub	sp, sp, #60	; 0x3c
    ad60:	e1a04000 	mov	r4, r0
    ad64:	e1a09001 	mov	r9, r1
    ad68:	e1a06002 	mov	r6, r2
    ad6c:	e1a07003 	mov	r7, r3
    ad70:	0a000001 	beq	ad7c <_nl_find_domain+0x30>
    ad74:	e59f0250 	ldr	r0, [pc, #592]	; afcc <_nl_find_domain+0x280>
    ad78:	e1a00000 	nop			; (mov r0, r0)
    ad7c:	e1a00004 	mov	r0, r4
    ad80:	eb0048c2 	bl	1d090 <strlen>
    ad84:	e3a03000 	mov	r3, #0
    ad88:	e2802001 	add	r2, r0, #1
    ad8c:	e58d9000 	str	r9, [sp]
    ad90:	e58d6014 	str	r6, [sp, #20]
    ad94:	e58d3004 	str	r3, [sp, #4]
    ad98:	e58d3008 	str	r3, [sp, #8]
    ad9c:	e58d300c 	str	r3, [sp, #12]
    ada0:	e58d3010 	str	r3, [sp, #16]
    ada4:	e58d3018 	str	r3, [sp, #24]
    ada8:	e59f0220 	ldr	r0, [pc, #544]	; afd0 <_nl_find_domain+0x284>
    adac:	e1a01004 	mov	r1, r4
    adb0:	eb0007ce 	bl	ccf0 <_nl_make_l10nflist>
    adb4:	e59f5218 	ldr	r5, [pc, #536]	; afd4 <_nl_find_domain+0x288>
    adb8:	e1a08000 	mov	r8, r0
    adbc:	e3550000 	cmp	r5, #0
    adc0:	0a000001 	beq	adcc <_nl_find_domain+0x80>
    adc4:	e59f0200 	ldr	r0, [pc, #512]	; afcc <_nl_find_domain+0x280>
    adc8:	e1a00000 	nop			; (mov r0, r0)
    adcc:	e3580000 	cmp	r8, #0
    add0:	0a00001f 	beq	ae54 <_nl_find_domain+0x108>
    add4:	e5983004 	ldr	r3, [r8, #4]
    add8:	e3530000 	cmp	r3, #0
    addc:	da000018 	ble	ae44 <_nl_find_domain+0xf8>
    ade0:	e5983008 	ldr	r3, [r8, #8]
    ade4:	e3530000 	cmp	r3, #0
    ade8:	0a000002 	beq	adf8 <_nl_find_domain+0xac>
    adec:	e1a00008 	mov	r0, r8
    adf0:	e24bd020 	sub	sp, fp, #32
    adf4:	e8bd8ff0 	pop	{r4, r5, r6, r7, r8, r9, sl, fp, pc}
    adf8:	e5980010 	ldr	r0, [r8, #16]
    adfc:	e3500000 	cmp	r0, #0
    ae00:	0afffff9 	beq	adec <_nl_find_domain+0xa0>
    ae04:	e1a04008 	mov	r4, r8
    ae08:	ea000007 	b	ae2c <_nl_find_domain+0xe0>
    ae0c:	e5943010 	ldr	r3, [r4, #16]
    ae10:	e2844004 	add	r4, r4, #4
    ae14:	e5933008 	ldr	r3, [r3, #8]
    ae18:	e3530000 	cmp	r3, #0
    ae1c:	1afffff2 	bne	adec <_nl_find_domain+0xa0>
    ae20:	e5940010 	ldr	r0, [r4, #16]
    ae24:	e3500000 	cmp	r0, #0
    ae28:	0affffef 	beq	adec <_nl_find_domain+0xa0>
    ae2c:	e5902004 	ldr	r2, [r0, #4]
    ae30:	e3520000 	cmp	r2, #0
    ae34:	cafffff4 	bgt	ae0c <_nl_find_domain+0xc0>
    ae38:	e1a01007 	mov	r1, r7
    ae3c:	eb000066 	bl	afdc <_nl_load_domain>
    ae40:	eafffff1 	b	ae0c <_nl_find_domain+0xc0>
    ae44:	e1a00008 	mov	r0, r8
    ae48:	e1a01007 	mov	r1, r7
    ae4c:	eb000062 	bl	afdc <_nl_load_domain>
    ae50:	eaffffe2 	b	ade0 <_nl_find_domain+0x94>
    ae54:	e1a00009 	mov	r0, r9
    ae58:	eb00072c 	bl	cb10 <_nl_expand_alias>
    ae5c:	e2508000 	subs	r8, r0, #0
    ae60:	0a000008 	beq	ae88 <_nl_find_domain+0x13c>
    ae64:	eb004889 	bl	1d090 <strlen>
    ae68:	e280300f 	add	r3, r0, #15
    ae6c:	e3c33007 	bic	r3, r3, #7
    ae70:	e04dd003 	sub	sp, sp, r3
    ae74:	e2802001 	add	r2, r0, #1
    ae78:	e1a01008 	mov	r1, r8
    ae7c:	e28d0020 	add	r0, sp, #32
    ae80:	eb004d82 	bl	1e490 <memcpy>
    ae84:	e1a09000 	mov	r9, r0
    ae88:	e24b202c 	sub	r2, fp, #44	; 0x2c
    ae8c:	e24b3028 	sub	r3, fp, #40	; 0x28
    ae90:	e88d000c 	stm	sp, {r2, r3}
    ae94:	e1a00009 	mov	r0, r9
    ae98:	e24b1038 	sub	r1, fp, #56	; 0x38
    ae9c:	e24b2034 	sub	r2, fp, #52	; 0x34
    aea0:	e24b3030 	sub	r3, fp, #48	; 0x30
    aea4:	eb00090c 	bl	d2dc <_nl_explode_name>
    aea8:	e3700001 	cmn	r0, #1
    aeac:	e1a08000 	mov	r8, r0
    aeb0:	0a000042 	beq	afc0 <_nl_find_domain+0x274>
    aeb4:	e59f311c 	ldr	r3, [pc, #284]	; afd8 <_nl_find_domain+0x28c>
    aeb8:	e3530000 	cmp	r3, #0
    aebc:	0a000001 	beq	aec8 <_nl_find_domain+0x17c>
    aec0:	e59f0104 	ldr	r0, [pc, #260]	; afcc <_nl_find_domain+0x280>
    aec4:	e1a00000 	nop			; (mov r0, r0)
    aec8:	e1a00004 	mov	r0, r4
    aecc:	eb00486f 	bl	1d090 <strlen>
    aed0:	e3a0a001 	mov	sl, #1
    aed4:	e51b3028 	ldr	r3, [fp, #-40]	; 0x28
    aed8:	e51b9038 	ldr	r9, [fp, #-56]	; 0x38
    aedc:	e51be030 	ldr	lr, [fp, #-48]	; 0x30
    aee0:	e51bc02c 	ldr	ip, [fp, #-44]	; 0x2c
    aee4:	e58d300c 	str	r3, [sp, #12]
    aee8:	e51b3034 	ldr	r3, [fp, #-52]	; 0x34
    aeec:	e080200a 	add	r2, r0, sl
    aef0:	e58d6014 	str	r6, [sp, #20]
    aef4:	e58d3010 	str	r3, [sp, #16]
    aef8:	e1a01004 	mov	r1, r4
    aefc:	e58da018 	str	sl, [sp, #24]
    af00:	e88d4200 	stm	sp, {r9, lr}
    af04:	e58dc008 	str	ip, [sp, #8]
    af08:	e59f00c0 	ldr	r0, [pc, #192]	; afd0 <_nl_find_domain+0x284>
    af0c:	e1a03008 	mov	r3, r8
    af10:	eb000776 	bl	ccf0 <_nl_make_l10nflist>
    af14:	e3550000 	cmp	r5, #0
    af18:	e1a06000 	mov	r6, r0
    af1c:	0a000001 	beq	af28 <_nl_find_domain+0x1dc>
    af20:	e59f00a4 	ldr	r0, [pc, #164]	; afcc <_nl_find_domain+0x280>
    af24:	e1a00000 	nop			; (mov r0, r0)
    af28:	e3560000 	cmp	r6, #0
    af2c:	0a000005 	beq	af48 <_nl_find_domain+0x1fc>
    af30:	e5963004 	ldr	r3, [r6, #4]
    af34:	e3530000 	cmp	r3, #0
    af38:	da00001c 	ble	afb0 <_nl_find_domain+0x264>
    af3c:	e5963008 	ldr	r3, [r6, #8]
    af40:	e3530000 	cmp	r3, #0
    af44:	0a000006 	beq	af64 <_nl_find_domain+0x218>
    af48:	e3180001 	tst	r8, #1
    af4c:	1a000001 	bne	af58 <_nl_find_domain+0x20c>
    af50:	e1a00006 	mov	r0, r6
    af54:	eaffffa5 	b	adf0 <_nl_find_domain+0xa4>
    af58:	e51b0028 	ldr	r0, [fp, #-40]	; 0x28
    af5c:	eb004112 	bl	1b3ac <__cfree>
    af60:	eafffffa 	b	af50 <_nl_find_domain+0x204>
    af64:	e5960010 	ldr	r0, [r6, #16]
    af68:	e3500000 	cmp	r0, #0
    af6c:	0afffff5 	beq	af48 <_nl_find_domain+0x1fc>
    af70:	e1a04006 	mov	r4, r6
    af74:	ea000007 	b	af98 <_nl_find_domain+0x24c>
    af78:	e5943010 	ldr	r3, [r4, #16]
    af7c:	e2844004 	add	r4, r4, #4
    af80:	e5933008 	ldr	r3, [r3, #8]
    af84:	e3530000 	cmp	r3, #0
    af88:	1affffee 	bne	af48 <_nl_find_domain+0x1fc>
    af8c:	e5940010 	ldr	r0, [r4, #16]
    af90:	e3500000 	cmp	r0, #0
    af94:	0affffeb 	beq	af48 <_nl_find_domain+0x1fc>
    af98:	e5903004 	ldr	r3, [r0, #4]
    af9c:	e3530000 	cmp	r3, #0
    afa0:	cafffff4 	bgt	af78 <_nl_find_domain+0x22c>
    afa4:	e1a01007 	mov	r1, r7
    afa8:	eb00000b 	bl	afdc <_nl_load_domain>
    afac:	eafffff1 	b	af78 <_nl_find_domain+0x22c>
    afb0:	e1a00006 	mov	r0, r6
    afb4:	e1a01007 	mov	r1, r7
    afb8:	eb000007 	bl	afdc <_nl_load_domain>
    afbc:	eaffffde 	b	af3c <_nl_find_domain+0x1f0>
    afc0:	e3a00000 	mov	r0, #0
    afc4:	eaffff89 	b	adf0 <_nl_find_domain+0xa4>
    afc8:	00000000 	.word	0x00000000
    afcc:	0008a160 	.word	0x0008a160
    afd0:	0008a180 	.word	0x0008a180
	...

0000afdc <_nl_load_domain>:
    afdc:	e92d4ff0 	push	{r4, r5, r6, r7, r8, r9, sl, fp, lr}
    afe0:	e59f9f84 	ldr	r9, [pc, #3972]	; bf6c <_nl_load_domain+0xf90>
    afe4:	e28db020 	add	fp, sp, #32
    afe8:	e24dd0e4 	sub	sp, sp, #228	; 0xe4
    afec:	e1a0a000 	mov	sl, r0
    aff0:	e5993008 	ldr	r3, [r9, #8]
    aff4:	ebfff979 	bl	95e0 <__aeabi_read_tp>
    aff8:	e2405d13 	sub	r5, r0, #1216	; 0x4c0
    affc:	e1530005 	cmp	r3, r5
    b000:	e50b10a0 	str	r1, [fp, #-160]	; 0xa0
    b004:	0a00000e 	beq	b044 <_nl_load_domain+0x68>
    b008:	e3a01001 	mov	r1, #1
    b00c:	e1a02009 	mov	r2, r9
    b010:	e3a04000 	mov	r4, #0
    b014:	e5923000 	ldr	r3, [r2]
    b018:	e1530004 	cmp	r3, r4
    b01c:	1a000005 	bne	b038 <_nl_load_domain+0x5c>
    b020:	e1a00004 	mov	r0, r4
    b024:	e3e03a0f 	mvn	r3, #61440	; 0xf000
    b028:	e1a0e00f 	mov	lr, pc
    b02c:	e243f03f 	sub	pc, r3, #63	; 0x3f
    b030:	3afffff7 	bcc	b014 <_nl_load_domain+0x38>
    b034:	e1a03004 	mov	r3, r4
    b038:	e3530000 	cmp	r3, #0
    b03c:	1a000386 	bne	be5c <_nl_load_domain+0xe80>
    b040:	e5895008 	str	r5, [r9, #8]
    b044:	e5993004 	ldr	r3, [r9, #4]
    b048:	e59a1004 	ldr	r1, [sl, #4]
    b04c:	e2832001 	add	r2, r3, #1
    b050:	e3510000 	cmp	r1, #0
    b054:	e5892004 	str	r2, [r9, #4]
    b058:	e59f0f0c 	ldr	r0, [pc, #3852]	; bf6c <_nl_load_domain+0xf90>
    b05c:	0a000016 	beq	b0bc <_nl_load_domain+0xe0>
    b060:	e3530000 	cmp	r3, #0
    b064:	e5803004 	str	r3, [r0, #4]
    b068:	1a000011 	bne	b0b4 <_nl_load_domain+0xd8>
    b06c:	e5803008 	str	r3, [r0, #8]
    b070:	e5995000 	ldr	r5, [r9]
    b074:	e3a01000 	mov	r1, #0
    b078:	e1a04005 	mov	r4, r5
    b07c:	e59f2ee8 	ldr	r2, [pc, #3816]	; bf6c <_nl_load_domain+0xf90>
    b080:	e5923000 	ldr	r3, [r2]
    b084:	e1530004 	cmp	r3, r4
    b088:	1a000005 	bne	b0a4 <_nl_load_domain+0xc8>
    b08c:	e1a00004 	mov	r0, r4
    b090:	e3e03a0f 	mvn	r3, #61440	; 0xf000
    b094:	e1a0e00f 	mov	lr, pc
    b098:	e243f03f 	sub	pc, r3, #63	; 0x3f
    b09c:	3afffff7 	bcc	b080 <_nl_load_domain+0xa4>
    b0a0:	e1a03004 	mov	r3, r4
    b0a4:	e1550003 	cmp	r5, r3
    b0a8:	1afffff0 	bne	b070 <_nl_load_domain+0x94>
    b0ac:	e3550001 	cmp	r5, #1
    b0b0:	ca00008b 	bgt	b2e4 <_nl_load_domain+0x308>
    b0b4:	e24bd020 	sub	sp, fp, #32
    b0b8:	e8bd8ff0 	pop	{r4, r5, r6, r7, r8, r9, sl, fp, pc}
    b0bc:	e3e03000 	mvn	r3, #0
    b0c0:	e59a0000 	ldr	r0, [sl]
    b0c4:	e58a1008 	str	r1, [sl, #8]
    b0c8:	e3500000 	cmp	r0, #0
    b0cc:	e58a3004 	str	r3, [sl, #4]
    b0d0:	0a00006a 	beq	b280 <_nl_load_domain+0x2a4>
    b0d4:	e3a07005 	mov	r7, #5
    b0d8:	ef000000 	svc	0x00000000
    b0dc:	e3700a01 	cmn	r0, #4096	; 0x1000
    b0e0:	e1a04000 	mov	r4, r0
    b0e4:	8a00005f 	bhi	b268 <_nl_load_domain+0x28c>
    b0e8:	e1a01004 	mov	r1, r4
    b0ec:	e3a00003 	mov	r0, #3
    b0f0:	e24b208c 	sub	r2, fp, #140	; 0x8c
    b0f4:	eb0051a9 	bl	1f7a0 <___fxstat64>
    b0f8:	e2501000 	subs	r1, r0, #0
    b0fc:	1a0000a1 	bne	b388 <_nl_load_domain+0x3ac>
    b100:	e24b605c 	sub	r6, fp, #92	; 0x5c
    b104:	e8960060 	ldm	r6, {r5, r6}
    b108:	e3a03000 	mov	r3, #0
    b10c:	e1560003 	cmp	r6, r3
    b110:	01550005 	cmpeq	r5, r5
    b114:	e50b509c 	str	r5, [fp, #-156]	; 0x9c
    b118:	e50b6098 	str	r6, [fp, #-152]	; 0x98
    b11c:	1a000099 	bne	b388 <_nl_load_domain+0x3ac>
    b120:	e355002f 	cmp	r5, #47	; 0x2f
    b124:	9a000097 	bls	b388 <_nl_load_domain+0x3ac>
    b128:	e58d1004 	str	r1, [sp, #4]
    b12c:	e58d4000 	str	r4, [sp]
    b130:	e51b109c 	ldr	r1, [fp, #-156]	; 0x9c
    b134:	e3a02001 	mov	r2, #1
    b138:	e3a03002 	mov	r3, #2
    b13c:	eb005493 	bl	20390 <__mmap>
    b140:	e3700001 	cmn	r0, #1
    b144:	e1a06000 	mov	r6, r0
    b148:	0a00035a 	beq	beb8 <_nl_load_domain+0xedc>
    b14c:	e1a00004 	mov	r0, r4
    b150:	e3a07006 	mov	r7, #6
    b154:	ef000000 	svc	0x00000000
    b158:	e59f2e10 	ldr	r2, [pc, #3600]	; bf70 <_nl_load_domain+0xf94>
    b15c:	e5963000 	ldr	r3, [r6]
    b160:	e59f1e0c 	ldr	r1, [pc, #3596]	; bf74 <_nl_load_domain+0xf98>
    b164:	e0534002 	subs	r4, r3, r2
    b168:	13a04001 	movne	r4, #1
    b16c:	e1530001 	cmp	r3, r1
    b170:	11530002 	cmpne	r3, r2
    b174:	1a000440 	bne	c27c <_nl_load_domain+0x12a0>
    b178:	e3a0c001 	mov	ip, #1
    b17c:	e50bc0a4 	str	ip, [fp, #-164]	; 0xa4
    b180:	e3a00068 	mov	r0, #104	; 0x68
    b184:	eb003e99 	bl	1abf0 <__libc_malloc>
    b188:	e2505000 	subs	r5, r0, #0
    b18c:	0a000072 	beq	b35c <_nl_load_domain+0x380>
    b190:	e3a03000 	mov	r3, #0
    b194:	e1540003 	cmp	r4, r3
    b198:	15962004 	ldrne	r2, [r6, #4]
    b19c:	e58a5008 	str	r5, [sl, #8]
    b1a0:	e5853010 	str	r3, [r5, #16]
    b1a4:	10223862 	eorne	r3, r2, r2, ror #16
    b1a8:	11a03423 	lsrne	r3, r3, #8
    b1ac:	13c33cff 	bicne	r3, r3, #65280	; 0xff00
    b1b0:	05963004 	ldreq	r3, [r6, #4]
    b1b4:	e51bc0a4 	ldr	ip, [fp, #-164]	; 0xa4
    b1b8:	e51b009c 	ldr	r0, [fp, #-156]	; 0x9c
    b1bc:	10233462 	eorne	r3, r3, r2, ror #8
    b1c0:	e3530802 	cmp	r3, #131072	; 0x20000
    b1c4:	e5856000 	str	r6, [r5]
    b1c8:	e585c004 	str	ip, [r5, #4]
    b1cc:	e5850008 	str	r0, [r5, #8]
    b1d0:	e585400c 	str	r4, [r5, #12]
    b1d4:	2a0000c5 	bcs	b4f0 <_nl_load_domain+0x514>
    b1d8:	e3540000 	cmp	r4, #0
    b1dc:	0a00006e 	beq	b39c <_nl_load_domain+0x3c0>
    b1e0:	e286200c 	add	r2, r6, #12
    b1e4:	e8924084 	ldm	r2, {r2, r7, lr}
    b1e8:	e0220862 	eor	r0, r2, r2, ror #16
    b1ec:	e1a00420 	lsr	r0, r0, #8
    b1f0:	e3c00cff 	bic	r0, r0, #65280	; 0xff00
    b1f4:	e0200462 	eor	r0, r0, r2, ror #8
    b1f8:	e02e286e 	eor	r2, lr, lr, ror #16
    b1fc:	e596c008 	ldr	ip, [r6, #8]
    b200:	e1a02422 	lsr	r2, r2, #8
    b204:	e3c22cff 	bic	r2, r2, #65280	; 0xff00
    b208:	e0271867 	eor	r1, r7, r7, ror #16
    b20c:	e022e46e 	eor	lr, r2, lr, ror #8
    b210:	e1a01421 	lsr	r1, r1, #8
    b214:	e02c286c 	eor	r2, ip, ip, ror #16
    b218:	e3c11cff 	bic	r1, r1, #65280	; 0xff00
    b21c:	e1a02422 	lsr	r2, r2, #8
    b220:	e0211467 	eor	r1, r1, r7, ror #8
    b224:	e3c22cff 	bic	r2, r2, #65280	; 0xff00
    b228:	e0860000 	add	r0, r6, r0
    b22c:	e0861001 	add	r1, r6, r1
    b230:	e022c46c 	eor	ip, r2, ip, ror #8
    b234:	e35e0002 	cmp	lr, #2
    b238:	e5850018 	str	r0, [r5, #24]
    b23c:	e585101c 	str	r1, [r5, #28]
    b240:	e585c014 	str	ip, [r5, #20]
    b244:	e585e02c 	str	lr, [r5, #44]	; 0x2c
    b248:	9a0000ba 	bls	b538 <_nl_load_domain+0x55c>
    b24c:	e5962018 	ldr	r2, [r6, #24]
    b250:	e50be0a8 	str	lr, [fp, #-168]	; 0xa8
    b254:	e0221862 	eor	r1, r2, r2, ror #16
    b258:	e1a01421 	lsr	r1, r1, #8
    b25c:	e3c11cff 	bic	r1, r1, #65280	; 0xff00
    b260:	e0212462 	eor	r2, r1, r2, ror #8
    b264:	ea0000b1 	b	b530 <_nl_load_domain+0x554>
    b268:	e59f3d08 	ldr	r3, [pc, #3336]	; bf78 <_nl_load_domain+0xf9c>
    b26c:	e2604000 	rsb	r4, r0, #0
    b270:	e79f3003 	ldr	r3, [pc, r3]
    b274:	ebfff8d9 	bl	95e0 <__aeabi_read_tp>
    b278:	e5992004 	ldr	r2, [r9, #4]
    b27c:	e7804003 	str	r4, [r0, r3]
    b280:	e3a03001 	mov	r3, #1
    b284:	e2422001 	sub	r2, r2, #1
    b288:	e3520000 	cmp	r2, #0
    b28c:	e58a3004 	str	r3, [sl, #4]
    b290:	e59f3cd4 	ldr	r3, [pc, #3284]	; bf6c <_nl_load_domain+0xf90>
    b294:	e5892004 	str	r2, [r9, #4]
    b298:	1affff85 	bne	b0b4 <_nl_load_domain+0xd8>
    b29c:	e5832008 	str	r2, [r3, #8]
    b2a0:	e5995000 	ldr	r5, [r9]
    b2a4:	e3a01000 	mov	r1, #0
    b2a8:	e1a04005 	mov	r4, r5
    b2ac:	e59f2cb8 	ldr	r2, [pc, #3256]	; bf6c <_nl_load_domain+0xf90>
    b2b0:	e5923000 	ldr	r3, [r2]
    b2b4:	e1530004 	cmp	r3, r4
    b2b8:	1a000005 	bne	b2d4 <_nl_load_domain+0x2f8>
    b2bc:	e1a00004 	mov	r0, r4
    b2c0:	e3e03a0f 	mvn	r3, #61440	; 0xf000
    b2c4:	e1a0e00f 	mov	lr, pc
    b2c8:	e243f03f 	sub	pc, r3, #63	; 0x3f
    b2cc:	3afffff7 	bcc	b2b0 <_nl_load_domain+0x2d4>
    b2d0:	e1a03004 	mov	r3, r4
    b2d4:	e1550003 	cmp	r5, r3
    b2d8:	1afffff0 	bne	b2a0 <_nl_load_domain+0x2c4>
    b2dc:	e3550001 	cmp	r5, #1
    b2e0:	daffff73 	ble	b0b4 <_nl_load_domain+0xd8>
    b2e4:	e1a00002 	mov	r0, r2
    b2e8:	e3a01081 	mov	r1, #129	; 0x81
    b2ec:	e3a02001 	mov	r2, #1
    b2f0:	e3a03000 	mov	r3, #0
    b2f4:	e3a070f0 	mov	r7, #240	; 0xf0
    b2f8:	ef000000 	svc	0x00000000
    b2fc:	eaffff6c 	b	b0b4 <_nl_load_domain+0xd8>
    b300:	e5853020 	str	r3, [r5, #32]
    b304:	e5853024 	str	r3, [r5, #36]	; 0x24
    b308:	e5853028 	str	r3, [r5, #40]	; 0x28
    b30c:	e3a01000 	mov	r1, #0
    b310:	e59f3c64 	ldr	r3, [pc, #3172]	; bf7c <_nl_load_domain+0xfa0>
    b314:	e5851038 	str	r1, [r5, #56]	; 0x38
    b318:	e1530001 	cmp	r3, r1
    b31c:	e585103c 	str	r1, [r5, #60]	; 0x3c
    b320:	0a000001 	beq	b32c <_nl_load_domain+0x350>
    b324:	e2850040 	add	r0, r5, #64	; 0x40
    b328:	e1a00000 	nop			; (mov r0, r0)
    b32c:	e24b3094 	sub	r3, fp, #148	; 0x94
    b330:	e58d3000 	str	r3, [sp]
    b334:	e51b10a0 	ldr	r1, [fp, #-160]	; 0xa0
    b338:	e1a0000a 	mov	r0, sl
    b33c:	e59f2c3c 	ldr	r2, [pc, #3132]	; bf80 <_nl_load_domain+0xfa4>
    b340:	e3a03000 	mov	r3, #0
    b344:	ebfff9cd 	bl	9a80 <_nl_find_msg>
    b348:	e3700001 	cmn	r0, #1
    b34c:	0a0000bc 	beq	b644 <_nl_load_domain+0x668>
    b350:	e2851060 	add	r1, r5, #96	; 0x60
    b354:	e2852064 	add	r2, r5, #100	; 0x64
    b358:	eb000ad3 	bl	deac <__gettext_extract_plural>
    b35c:	e5992004 	ldr	r2, [r9, #4]
    b360:	eaffffc6 	b	b280 <_nl_load_domain+0x2a4>
    b364:	ebfff89d 	bl	95e0 <__aeabi_read_tp>
    b368:	e59fcc14 	ldr	ip, [pc, #3092]	; bf84 <_nl_load_domain+0xfa8>
    b36c:	e2622000 	rsb	r2, r2, #0
    b370:	e79f100c 	ldr	r1, [pc, ip]
    b374:	e7802001 	str	r2, [r0, r1]
    b378:	e79f2008 	ldr	r2, [pc, r8]
    b37c:	e7902002 	ldr	r2, [r0, r2]
    b380:	e3520004 	cmp	r2, #4
    b384:	0a0002d2 	beq	bed4 <_nl_load_domain+0xef8>
    b388:	e1a00004 	mov	r0, r4
    b38c:	e3a07006 	mov	r7, #6
    b390:	ef000000 	svc	0x00000000
    b394:	e5992004 	ldr	r2, [r9, #4]
    b398:	eaffffb8 	b	b280 <_nl_load_domain+0x2a4>
    b39c:	e5960008 	ldr	r0, [r6, #8]
    b3a0:	e286100c 	add	r1, r6, #12
    b3a4:	e8911006 	ldm	r1, {r1, r2, ip}
    b3a8:	e0861001 	add	r1, r6, r1
    b3ac:	e0862002 	add	r2, r6, r2
    b3b0:	e35c0002 	cmp	ip, #2
    b3b4:	e50bc0a8 	str	ip, [fp, #-168]	; 0xa8
    b3b8:	e5851018 	str	r1, [r5, #24]
    b3bc:	e5850014 	str	r0, [r5, #20]
    b3c0:	e585201c 	str	r2, [r5, #28]
    b3c4:	e585c02c 	str	ip, [r5, #44]	; 0x2c
    b3c8:	8a000057 	bhi	b52c <_nl_load_domain+0x550>
    b3cc:	e3a02000 	mov	r2, #0
    b3d0:	e1a03803 	lsl	r3, r3, #16
    b3d4:	e1b03823 	lsrs	r3, r3, #16
    b3d8:	e5852030 	str	r2, [r5, #48]	; 0x30
    b3dc:	e5854034 	str	r4, [r5, #52]	; 0x34
    b3e0:	0affffc6 	beq	b300 <_nl_load_domain+0x324>
    b3e4:	e3520000 	cmp	r2, #0
    b3e8:	0a00009a 	beq	b658 <_nl_load_domain+0x67c>
    b3ec:	e3540000 	cmp	r4, #0
    b3f0:	1a000052 	bne	b540 <_nl_load_domain+0x564>
    b3f4:	e5963024 	ldr	r3, [r6, #36]	; 0x24
    b3f8:	e3530000 	cmp	r3, #0
    b3fc:	e50b30b4 	str	r3, [fp, #-180]	; 0xb4
    b400:	0a000087 	beq	b624 <_nl_load_domain+0x648>
    b404:	e596c01c 	ldr	ip, [r6, #28]
    b408:	e5967020 	ldr	r7, [r6, #32]
    b40c:	e50bc0b0 	str	ip, [fp, #-176]	; 0xb0
    b410:	e51b10b0 	ldr	r1, [fp, #-176]	; 0xb0
    b414:	e0867007 	add	r7, r6, r7
    b418:	e1a03101 	lsl	r3, r1, #2
    b41c:	e283300e 	add	r3, r3, #14
    b420:	e3c33007 	bic	r3, r3, #7
    b424:	e04dd003 	sub	sp, sp, r3
    b428:	e28d3008 	add	r3, sp, #8
    b42c:	e3510000 	cmp	r1, #0
    b430:	e50b30c0 	str	r3, [fp, #-192]	; 0xc0
    b434:	0a00008a 	beq	b664 <_nl_load_domain+0x688>
    b438:	e3a02000 	mov	r2, #0
    b43c:	e51bc0c0 	ldr	ip, [fp, #-192]	; 0xc0
    b440:	e1a00002 	mov	r0, r2
    b444:	e24c8004 	sub	r8, ip, #4
    b448:	e50b50ac 	str	r5, [fp, #-172]	; 0xac
    b44c:	e51be0b0 	ldr	lr, [fp, #-176]	; 0xb0
    b450:	ea00001f 	b	b4d4 <_nl_load_domain+0x4f8>
    b454:	e5935004 	ldr	r5, [r3, #4]
    b458:	e797c002 	ldr	ip, [r7, r2]
    b45c:	e0253865 	eor	r3, r5, r5, ror #16
    b460:	e1a03423 	lsr	r3, r3, #8
    b464:	e02c186c 	eor	r1, ip, ip, ror #16
    b468:	e3c33cff 	bic	r3, r3, #65280	; 0xff00
    b46c:	e1a01421 	lsr	r1, r1, #8
    b470:	e0233465 	eor	r3, r3, r5, ror #8
    b474:	e3c11cff 	bic	r1, r1, #65280	; 0xff00
    b478:	e0863003 	add	r3, r6, r3
    b47c:	e021146c 	eor	r1, r1, ip, ror #8
    b480:	e3510000 	cmp	r1, #0
    b484:	0a00006b 	beq	b638 <_nl_load_domain+0x65c>
    b488:	e0831001 	add	r1, r3, r1
    b48c:	e551c001 	ldrb	ip, [r1, #-1]
    b490:	e35c0000 	cmp	ip, #0
    b494:	1a000067 	bne	b638 <_nl_load_domain+0x65c>
    b498:	e5d31000 	ldrb	r1, [r3]
    b49c:	e3510050 	cmp	r1, #80	; 0x50
    b4a0:	0a000039 	beq	b58c <_nl_load_domain+0x5b0>
    b4a4:	e3510049 	cmp	r1, #73	; 0x49
    b4a8:	1a000004 	bne	b4c0 <_nl_load_domain+0x4e4>
    b4ac:	e5d3c001 	ldrb	ip, [r3, #1]
    b4b0:	e59f1ad0 	ldr	r1, [pc, #2768]	; bf88 <_nl_load_domain+0xfac>
    b4b4:	e35c0000 	cmp	ip, #0
    b4b8:	13a01000 	movne	r1, #0
    b4bc:	e1a0c001 	mov	ip, r1
    b4c0:	e2800001 	add	r0, r0, #1
    b4c4:	e150000e 	cmp	r0, lr
    b4c8:	e5a8c004 	str	ip, [r8, #4]!
    b4cc:	e2822008 	add	r2, r2, #8
    b4d0:	0a000062 	beq	b660 <_nl_load_domain+0x684>
    b4d4:	e3540000 	cmp	r4, #0
    b4d8:	e0873002 	add	r3, r7, r2
    b4dc:	1affffdc 	bne	b454 <_nl_load_domain+0x478>
    b4e0:	e5933004 	ldr	r3, [r3, #4]
    b4e4:	e7971002 	ldr	r1, [r7, r2]
    b4e8:	e0863003 	add	r3, r6, r3
    b4ec:	eaffffe3 	b	b480 <_nl_load_domain+0x4a4>
    b4f0:	e3a00000 	mov	r0, #0
    b4f4:	eb003fac 	bl	1b3ac <__cfree>
    b4f8:	e51bc0a4 	ldr	ip, [fp, #-164]	; 0xa4
    b4fc:	e1a00006 	mov	r0, r6
    b500:	e35c0000 	cmp	ip, #0
    b504:	1a000005 	bne	b520 <_nl_load_domain+0x544>
    b508:	eb003fa7 	bl	1b3ac <__cfree>
    b50c:	e1a00005 	mov	r0, r5
    b510:	eb003fa5 	bl	1b3ac <__cfree>
    b514:	e3a03000 	mov	r3, #0
    b518:	e58a3008 	str	r3, [sl, #8]
    b51c:	eaffff8e 	b	b35c <_nl_load_domain+0x380>
    b520:	e51b109c 	ldr	r1, [fp, #-156]	; 0x9c
    b524:	eb0053c5 	bl	20440 <__munmap>
    b528:	eafffff7 	b	b50c <_nl_load_domain+0x530>
    b52c:	e5962018 	ldr	r2, [r6, #24]
    b530:	e0862002 	add	r2, r6, r2
    b534:	eaffffa5 	b	b3d0 <_nl_load_domain+0x3f4>
    b538:	e50be0a8 	str	lr, [fp, #-168]	; 0xa8
    b53c:	eaffffa2 	b	b3cc <_nl_load_domain+0x3f0>
    b540:	e5962024 	ldr	r2, [r6, #36]	; 0x24
    b544:	e0223862 	eor	r3, r2, r2, ror #16
    b548:	e1a03423 	lsr	r3, r3, #8
    b54c:	e3c33cff 	bic	r3, r3, #65280	; 0xff00
    b550:	e0333462 	eors	r3, r3, r2, ror #8
    b554:	e50b30b4 	str	r3, [fp, #-180]	; 0xb4
    b558:	0a000031 	beq	b624 <_nl_load_domain+0x648>
    b55c:	e596001c 	ldr	r0, [r6, #28]
    b560:	e5961020 	ldr	r1, [r6, #32]
    b564:	e0202860 	eor	r2, r0, r0, ror #16
    b568:	e0213861 	eor	r3, r1, r1, ror #16
    b56c:	e1a02422 	lsr	r2, r2, #8
    b570:	e1a03423 	lsr	r3, r3, #8
    b574:	e3c22cff 	bic	r2, r2, #65280	; 0xff00
    b578:	e3c33cff 	bic	r3, r3, #65280	; 0xff00
    b57c:	e0222460 	eor	r2, r2, r0, ror #8
    b580:	e50b20b0 	str	r2, [fp, #-176]	; 0xb0
    b584:	e0237461 	eor	r7, r3, r1, ror #8
    b588:	eaffffa0 	b	b410 <_nl_load_domain+0x434>
    b58c:	e5d31001 	ldrb	r1, [r3, #1]
    b590:	e3510052 	cmp	r1, #82	; 0x52
    b594:	1affffc9 	bne	b4c0 <_nl_load_domain+0x4e4>
    b598:	e5d31002 	ldrb	r1, [r3, #2]
    b59c:	e3510049 	cmp	r1, #73	; 0x49
    b5a0:	1affffc6 	bne	b4c0 <_nl_load_domain+0x4e4>
    b5a4:	e5d31003 	ldrb	r1, [r3, #3]
    b5a8:	e2415064 	sub	r5, r1, #100	; 0x64
    b5ac:	e16f5f15 	clz	r5, r5
    b5b0:	e1a052a5 	lsr	r5, r5, #5
    b5b4:	e50b50b8 	str	r5, [fp, #-184]	; 0xb8
    b5b8:	e2415069 	sub	r5, r1, #105	; 0x69
    b5bc:	e16f5f15 	clz	r5, r5
    b5c0:	e51bc0b8 	ldr	ip, [fp, #-184]	; 0xb8
    b5c4:	e1a052a5 	lsr	r5, r5, #5
    b5c8:	e19cc005 	orrs	ip, ip, r5
    b5cc:	e50bc0c4 	str	ip, [fp, #-196]	; 0xc4
    b5d0:	1a000007 	bne	b5f4 <_nl_load_domain+0x618>
    b5d4:	e351006f 	cmp	r1, #111	; 0x6f
    b5d8:	0a000005 	beq	b5f4 <_nl_load_domain+0x618>
    b5dc:	e3510075 	cmp	r1, #117	; 0x75
    b5e0:	0a000003 	beq	b5f4 <_nl_load_domain+0x618>
    b5e4:	e201c0df 	and	ip, r1, #223	; 0xdf
    b5e8:	e35c0058 	cmp	ip, #88	; 0x58
    b5ec:	151bc0c4 	ldrne	ip, [fp, #-196]	; 0xc4
    b5f0:	1affffb2 	bne	b4c0 <_nl_load_domain+0x4e4>
    b5f4:	e5d3c004 	ldrb	ip, [r3, #4]
    b5f8:	e35c0038 	cmp	ip, #56	; 0x38
    b5fc:	0a0001d7 	beq	bd60 <_nl_load_domain+0xd84>
    b600:	e35c0031 	cmp	ip, #49	; 0x31
    b604:	0a0001e7 	beq	bda8 <_nl_load_domain+0xdcc>
    b608:	e35c0033 	cmp	ip, #51	; 0x33
    b60c:	1a0001fa 	bne	bdfc <_nl_load_domain+0xe20>
    b610:	e5d3c005 	ldrb	ip, [r3, #5]
    b614:	e35c0032 	cmp	ip, #50	; 0x32
    b618:	0a000212 	beq	be68 <_nl_load_domain+0xe8c>
    b61c:	e3a0c000 	mov	ip, #0
    b620:	eaffffa6 	b	b4c0 <_nl_load_domain+0x4e4>
    b624:	e3a03000 	mov	r3, #0
    b628:	e5853020 	str	r3, [r5, #32]
    b62c:	e5853024 	str	r3, [r5, #36]	; 0x24
    b630:	e5853028 	str	r3, [r5, #40]	; 0x28
    b634:	eaffff34 	b	b30c <_nl_load_domain+0x330>
    b638:	e51b50ac 	ldr	r5, [fp, #-172]	; 0xac
    b63c:	e5950010 	ldr	r0, [r5, #16]
    b640:	eaffffab 	b	b4f4 <_nl_load_domain+0x518>
    b644:	e59f3940 	ldr	r3, [pc, #2368]	; bf8c <_nl_load_domain+0xfb0>
    b648:	e3530000 	cmp	r3, #0
    b64c:	0a000001 	beq	b658 <_nl_load_domain+0x67c>
    b650:	e2850040 	add	r0, r5, #64	; 0x40
    b654:	e1a00000 	nop			; (mov r0, r0)
    b658:	e5950010 	ldr	r0, [r5, #16]
    b65c:	eaffffa4 	b	b4f4 <_nl_load_domain+0x518>
    b660:	e51b50ac 	ldr	r5, [fp, #-172]	; 0xac
    b664:	e3540000 	cmp	r4, #0
    b668:	0a000117 	beq	bacc <_nl_load_domain+0xaf0>
    b66c:	e5960028 	ldr	r0, [r6, #40]	; 0x28
    b670:	e596102c 	ldr	r1, [r6, #44]	; 0x2c
    b674:	e0202860 	eor	r2, r0, r0, ror #16
    b678:	e1a02422 	lsr	r2, r2, #8
    b67c:	e0213861 	eor	r3, r1, r1, ror #16
    b680:	e3c22cff 	bic	r2, r2, #65280	; 0xff00
    b684:	e1a03423 	lsr	r3, r3, #8
    b688:	e0222460 	eor	r2, r2, r0, ror #8
    b68c:	e3c33cff 	bic	r3, r3, #65280	; 0xff00
    b690:	e0862002 	add	r2, r6, r2
    b694:	e50b20d8 	str	r2, [fp, #-216]	; 0xd8
    b698:	e0233461 	eor	r3, r3, r1, ror #8
    b69c:	e3a02000 	mov	r2, #0
    b6a0:	e51bc0a8 	ldr	ip, [fp, #-168]	; 0xa8
    b6a4:	e0863003 	add	r3, r6, r3
    b6a8:	e1a0c10c 	lsl	ip, ip, #2
    b6ac:	e50b60bc 	str	r6, [fp, #-188]	; 0xbc
    b6b0:	e50b50cc 	str	r5, [fp, #-204]	; 0xcc
    b6b4:	e51b60c0 	ldr	r6, [fp, #-192]	; 0xc0
    b6b8:	e51b50b0 	ldr	r5, [fp, #-176]	; 0xb0
    b6bc:	e50b20ac 	str	r2, [fp, #-172]	; 0xac
    b6c0:	e50bc0d0 	str	ip, [fp, #-208]	; 0xd0
    b6c4:	e50b30b8 	str	r3, [fp, #-184]	; 0xb8
    b6c8:	e50bc0c4 	str	ip, [fp, #-196]	; 0xc4
    b6cc:	e50b20c8 	str	r2, [fp, #-200]	; 0xc8
    b6d0:	e50ba0d4 	str	sl, [fp, #-212]	; 0xd4
    b6d4:	e3a07000 	mov	r7, #0
    b6d8:	e51b10ac 	ldr	r1, [fp, #-172]	; 0xac
    b6dc:	e1a01101 	lsl	r1, r1, #2
    b6e0:	e50b10a8 	str	r1, [fp, #-168]	; 0xa8
    b6e4:	e3540000 	cmp	r4, #0
    b6e8:	0a0000e5 	beq	ba84 <_nl_load_domain+0xaa8>
    b6ec:	e3570000 	cmp	r7, #0
    b6f0:	051b30d8 	ldreq	r3, [fp, #-216]	; 0xd8
    b6f4:	051b20a8 	ldreq	r2, [fp, #-168]	; 0xa8
    b6f8:	151b30b8 	ldrne	r3, [fp, #-184]	; 0xb8
    b6fc:	151bc0a8 	ldrne	ip, [fp, #-168]	; 0xa8
    b700:	07938002 	ldreq	r8, [r3, r2]
    b704:	1793800c 	ldrne	r8, [r3, ip]
    b708:	e51bc0bc 	ldr	ip, [fp, #-188]	; 0xbc
    b70c:	e0283868 	eor	r3, r8, r8, ror #16
    b710:	e1a03423 	lsr	r3, r3, #8
    b714:	e3c33cff 	bic	r3, r3, #65280	; 0xff00
    b718:	e0238468 	eor	r8, r3, r8, ror #8
    b71c:	e08c8008 	add	r8, ip, r8
    b720:	e5982008 	ldr	r2, [r8, #8]
    b724:	e0223862 	eor	r3, r2, r2, ror #16
    b728:	e1a03423 	lsr	r3, r3, #8
    b72c:	e3c33cff 	bic	r3, r3, #65280	; 0xff00
    b730:	e0232462 	eor	r2, r3, r2, ror #8
    b734:	e2922001 	adds	r2, r2, #1
    b738:	13a02001 	movne	r2, #1
    b73c:	e3520000 	cmp	r2, #0
    b740:	0a00001d 	beq	b7bc <_nl_load_domain+0x7e0>
    b744:	e3a00000 	mov	r0, #0
    b748:	e288800c 	add	r8, r8, #12
    b74c:	ea000014 	b	b7a4 <_nl_load_domain+0x7c8>
    b750:	e5183008 	ldr	r3, [r8, #-8]
    b754:	e5181004 	ldr	r1, [r8, #-4]
    b758:	e0232863 	eor	r2, r3, r3, ror #16
    b75c:	e1a02422 	lsr	r2, r2, #8
    b760:	e3c22cff 	bic	r2, r2, #65280	; 0xff00
    b764:	e0222463 	eor	r2, r2, r3, ror #8
    b768:	e0213861 	eor	r3, r1, r1, ror #16
    b76c:	e1a03423 	lsr	r3, r3, #8
    b770:	e3c33cff 	bic	r3, r3, #65280	; 0xff00
    b774:	e082a000 	add	sl, r2, r0
    b778:	e0233461 	eor	r3, r3, r1, ror #8
    b77c:	e3730001 	cmn	r3, #1
    b780:	0a00000e 	beq	b7c0 <_nl_load_domain+0x7e4>
    b784:	e1530005 	cmp	r3, r5
    b788:	2a0000ca 	bcs	bab8 <_nl_load_domain+0xadc>
    b78c:	e7960103 	ldr	r0, [r6, r3, lsl #2]
    b790:	e2888008 	add	r8, r8, #8
    b794:	e3500000 	cmp	r0, #0
    b798:	0a000016 	beq	b7f8 <_nl_load_domain+0x81c>
    b79c:	eb00463b 	bl	1d090 <strlen>
    b7a0:	e080000a 	add	r0, r0, sl
    b7a4:	e3540000 	cmp	r4, #0
    b7a8:	1affffe8 	bne	b750 <_nl_load_domain+0x774>
    b7ac:	e518a008 	ldr	sl, [r8, #-8]
    b7b0:	e5183004 	ldr	r3, [r8, #-4]
    b7b4:	e080a00a 	add	sl, r0, sl
    b7b8:	eaffffef 	b	b77c <_nl_load_domain+0x7a0>
    b7bc:	e1a0a002 	mov	sl, r2
    b7c0:	e24b3094 	sub	r3, fp, #148	; 0x94
    b7c4:	e783a107 	str	sl, [r3, r7, lsl #2]
    b7c8:	e2877001 	add	r7, r7, #1
    b7cc:	e3570002 	cmp	r7, #2
    b7d0:	1affffc3 	bne	b6e4 <_nl_load_domain+0x708>
    b7d4:	e51b2090 	ldr	r2, [fp, #-144]	; 0x90
    b7d8:	e51b3094 	ldr	r3, [fp, #-148]	; 0x94
    b7dc:	e51bc0c8 	ldr	ip, [fp, #-200]	; 0xc8
    b7e0:	e51b10c4 	ldr	r1, [fp, #-196]	; 0xc4
    b7e4:	e0823003 	add	r3, r2, r3
    b7e8:	e28cc001 	add	ip, ip, #1
    b7ec:	e0811003 	add	r1, r1, r3
    b7f0:	e50bc0c8 	str	ip, [fp, #-200]	; 0xc8
    b7f4:	e50b10c4 	str	r1, [fp, #-196]	; 0xc4
    b7f8:	e51b20ac 	ldr	r2, [fp, #-172]	; 0xac
    b7fc:	e51b30b4 	ldr	r3, [fp, #-180]	; 0xb4
    b800:	e2822001 	add	r2, r2, #1
    b804:	e1530002 	cmp	r3, r2
    b808:	e50b20ac 	str	r2, [fp, #-172]	; 0xac
    b80c:	8affffb0 	bhi	b6d4 <_nl_load_domain+0x6f8>
    b810:	e51bc0c8 	ldr	ip, [fp, #-200]	; 0xc8
    b814:	e51b60bc 	ldr	r6, [fp, #-188]	; 0xbc
    b818:	e35c0000 	cmp	ip, #0
    b81c:	e51b50cc 	ldr	r5, [fp, #-204]	; 0xcc
    b820:	e51ba0d4 	ldr	sl, [fp, #-212]	; 0xd4
    b824:	051b30c8 	ldreq	r3, [fp, #-200]	; 0xc8
    b828:	0afffeb4 	beq	b300 <_nl_load_domain+0x324>
    b82c:	e51b10c4 	ldr	r1, [fp, #-196]	; 0xc4
    b830:	e081020c 	add	r0, r1, ip, lsl #4
    b834:	eb003ced 	bl	1abf0 <__libc_malloc>
    b838:	e3500000 	cmp	r0, #0
    b83c:	e50b00cc 	str	r0, [fp, #-204]	; 0xcc
    b840:	0affff84 	beq	b658 <_nl_load_domain+0x67c>
    b844:	e3a03000 	mov	r3, #0
    b848:	e51bc0cc 	ldr	ip, [fp, #-204]	; 0xcc
    b84c:	e50b30bc 	str	r3, [fp, #-188]	; 0xbc
    b850:	e51b30c8 	ldr	r3, [fp, #-200]	; 0xc8
    b854:	e585c010 	str	ip, [r5, #16]
    b858:	e08c8203 	add	r8, ip, r3, lsl #4
    b85c:	e3a0c000 	mov	ip, #0
    b860:	e51b10d0 	ldr	r1, [fp, #-208]	; 0xd0
    b864:	e50ba0f4 	str	sl, [fp, #-244]	; 0xf4
    b868:	e0887001 	add	r7, r8, r1
    b86c:	e1a0a007 	mov	sl, r7
    b870:	e50bc0e0 	str	ip, [fp, #-224]	; 0xe0
    b874:	e50bc0d4 	str	ip, [fp, #-212]	; 0xd4
    b878:	e51bc0cc 	ldr	ip, [fp, #-204]	; 0xcc
    b87c:	e50b80f0 	str	r8, [fp, #-240]	; 0xf0
    b880:	e08c3183 	add	r3, ip, r3, lsl #3
    b884:	e51b80c0 	ldr	r8, [fp, #-192]	; 0xc0
    b888:	e50b30ec 	str	r3, [fp, #-236]	; 0xec
    b88c:	e50b60c4 	str	r6, [fp, #-196]	; 0xc4
    b890:	e50b50e8 	str	r5, [fp, #-232]	; 0xe8
    b894:	e3a01000 	mov	r1, #0
    b898:	e51bc0e8 	ldr	ip, [fp, #-232]	; 0xe8
    b89c:	e59c700c 	ldr	r7, [ip, #12]
    b8a0:	e51bc0bc 	ldr	ip, [fp, #-188]	; 0xbc
    b8a4:	e3570000 	cmp	r7, #0
    b8a8:	0a0000df 	beq	bc2c <_nl_load_domain+0xc50>
    b8ac:	e3510000 	cmp	r1, #0
    b8b0:	051b30d8 	ldreq	r3, [fp, #-216]	; 0xd8
    b8b4:	151b50b8 	ldrne	r5, [fp, #-184]	; 0xb8
    b8b8:	0793200c 	ldreq	r2, [r3, ip]
    b8bc:	1795200c 	ldrne	r2, [r5, ip]
    b8c0:	e51b60c4 	ldr	r6, [fp, #-196]	; 0xc4
    b8c4:	e0223862 	eor	r3, r2, r2, ror #16
    b8c8:	e1a03423 	lsr	r3, r3, #8
    b8cc:	e3c33cff 	bic	r3, r3, #65280	; 0xff00
    b8d0:	e0233462 	eor	r3, r3, r2, ror #8
    b8d4:	e0863003 	add	r3, r6, r3
    b8d8:	e5930008 	ldr	r0, [r3, #8]
    b8dc:	e0202860 	eor	r2, r0, r0, ror #16
    b8e0:	e1a02422 	lsr	r2, r2, #8
    b8e4:	e3c22cff 	bic	r2, r2, #65280	; 0xff00
    b8e8:	e0222460 	eor	r2, r2, r0, ror #8
    b8ec:	e2922001 	adds	r2, r2, #1
    b8f0:	13a02001 	movne	r2, #1
    b8f4:	e3520000 	cmp	r2, #0
    b8f8:	0a00000e 	beq	b938 <_nl_load_domain+0x95c>
    b8fc:	e283300c 	add	r3, r3, #12
    b900:	ea000003 	b	b914 <_nl_load_domain+0x938>
    b904:	e7982102 	ldr	r2, [r8, r2, lsl #2]
    b908:	e2833008 	add	r3, r3, #8
    b90c:	e3520000 	cmp	r2, #0
    b910:	0a000075 	beq	baec <_nl_load_domain+0xb10>
    b914:	e3570000 	cmp	r7, #0
    b918:	15130004 	ldrne	r0, [r3, #-4]
    b91c:	05132004 	ldreq	r2, [r3, #-4]
    b920:	10202860 	eorne	r2, r0, r0, ror #16
    b924:	11a02422 	lsrne	r2, r2, #8
    b928:	13c22cff 	bicne	r2, r2, #65280	; 0xff00
    b92c:	10222460 	eorne	r2, r2, r0, ror #8
    b930:	e3720001 	cmn	r2, #1
    b934:	1afffff2 	bne	b904 <_nl_load_domain+0x928>
    b938:	e2811001 	add	r1, r1, #1
    b93c:	e3510002 	cmp	r1, #2
    b940:	1affffd7 	bne	b8a4 <_nl_load_domain+0x8c8>
    b944:	e3a0c000 	mov	ip, #0
    b948:	e51b30e0 	ldr	r3, [fp, #-224]	; 0xe0
    b94c:	e3570000 	cmp	r7, #0
    b950:	e1a03183 	lsl	r3, r3, #3
    b954:	e50bc0b0 	str	ip, [fp, #-176]	; 0xb0
    b958:	e50b30dc 	str	r3, [fp, #-220]	; 0xdc
    b95c:	0a00003c 	beq	ba54 <_nl_load_domain+0xa78>
    b960:	e51b50b0 	ldr	r5, [fp, #-176]	; 0xb0
    b964:	e3550000 	cmp	r5, #0
    b968:	051b60bc 	ldreq	r6, [fp, #-188]	; 0xbc
    b96c:	151b50b8 	ldrne	r5, [fp, #-184]	; 0xb8
    b970:	151b30bc 	ldrne	r3, [fp, #-188]	; 0xbc
    b974:	051bc0d8 	ldreq	ip, [fp, #-216]	; 0xd8
    b978:	17952003 	ldrne	r2, [r5, r3]
    b97c:	079c2006 	ldreq	r2, [ip, r6]
    b980:	e51b60c4 	ldr	r6, [fp, #-196]	; 0xc4
    b984:	e0223862 	eor	r3, r2, r2, ror #16
    b988:	e1a03423 	lsr	r3, r3, #8
    b98c:	e3c33cff 	bic	r3, r3, #65280	; 0xff00
    b990:	e0233462 	eor	r3, r3, r2, ror #8
    b994:	e7961003 	ldr	r1, [r6, r3]
    b998:	e0865003 	add	r5, r6, r3
    b99c:	e0213861 	eor	r3, r1, r1, ror #16
    b9a0:	e1a03423 	lsr	r3, r3, #8
    b9a4:	e3c33cff 	bic	r3, r3, #65280	; 0xff00
    b9a8:	e0233461 	eor	r3, r3, r1, ror #8
    b9ac:	e51b00b0 	ldr	r0, [fp, #-176]	; 0xb0
    b9b0:	e51bc0cc 	ldr	ip, [fp, #-204]	; 0xcc
    b9b4:	e3500000 	cmp	r0, #0
    b9b8:	e51b60ec 	ldr	r6, [fp, #-236]	; 0xec
    b9bc:	01a0600c 	moveq	r6, ip
    b9c0:	e50b60d0 	str	r6, [fp, #-208]	; 0xd0
    b9c4:	e51b60c4 	ldr	r6, [fp, #-196]	; 0xc4
    b9c8:	e51bc0d0 	ldr	ip, [fp, #-208]	; 0xd0
    b9cc:	e0863003 	add	r3, r6, r3
    b9d0:	e50b30a8 	str	r3, [fp, #-168]	; 0xa8
    b9d4:	e51b30dc 	ldr	r3, [fp, #-220]	; 0xdc
    b9d8:	e3570000 	cmp	r7, #0
    b9dc:	e08cc003 	add	ip, ip, r3
    b9e0:	e50bc0e4 	str	ip, [fp, #-228]	; 0xe4
    b9e4:	e5952008 	ldr	r2, [r5, #8]
    b9e8:	0a0000d8 	beq	bd50 <_nl_load_domain+0xd74>
    b9ec:	e0223862 	eor	r3, r2, r2, ror #16
    b9f0:	e1a03423 	lsr	r3, r3, #8
    b9f4:	e3c33cff 	bic	r3, r3, #65280	; 0xff00
    b9f8:	e0233462 	eor	r3, r3, r2, ror #8
    b9fc:	e3730001 	cmn	r3, #1
    ba00:	1a000094 	bne	bc58 <_nl_load_domain+0xc7c>
    ba04:	e5952004 	ldr	r2, [r5, #4]
    ba08:	e0223862 	eor	r3, r2, r2, ror #16
    ba0c:	e1a03423 	lsr	r3, r3, #8
    ba10:	e3c33cff 	bic	r3, r3, #65280	; 0xff00
    ba14:	e0233462 	eor	r3, r3, r2, ror #8
    ba18:	e51b60d0 	ldr	r6, [fp, #-208]	; 0xd0
    ba1c:	e51b50dc 	ldr	r5, [fp, #-220]	; 0xdc
    ba20:	e51bc0a8 	ldr	ip, [fp, #-168]	; 0xa8
    ba24:	e7863005 	str	r3, [r6, r5]
    ba28:	e51b30e4 	ldr	r3, [fp, #-228]	; 0xe4
    ba2c:	e583c004 	str	ip, [r3, #4]
    ba30:	e51b30b0 	ldr	r3, [fp, #-176]	; 0xb0
    ba34:	e2833001 	add	r3, r3, #1
    ba38:	e3530002 	cmp	r3, #2
    ba3c:	e50b30b0 	str	r3, [fp, #-176]	; 0xb0
    ba40:	0a000026 	beq	bae0 <_nl_load_domain+0xb04>
    ba44:	e51b50e8 	ldr	r5, [fp, #-232]	; 0xe8
    ba48:	e595700c 	ldr	r7, [r5, #12]
    ba4c:	e3570000 	cmp	r7, #0
    ba50:	1affffc2 	bne	b960 <_nl_load_domain+0x984>
    ba54:	e51bc0b0 	ldr	ip, [fp, #-176]	; 0xb0
    ba58:	e35c0000 	cmp	ip, #0
    ba5c:	051b60d8 	ldreq	r6, [fp, #-216]	; 0xd8
    ba60:	051b50bc 	ldreq	r5, [fp, #-188]	; 0xbc
    ba64:	151b50b8 	ldrne	r5, [fp, #-184]	; 0xb8
    ba68:	151bc0bc 	ldrne	ip, [fp, #-188]	; 0xbc
    ba6c:	07963005 	ldreq	r3, [r6, r5]
    ba70:	1795300c 	ldrne	r3, [r5, ip]
    ba74:	e51b60c4 	ldr	r6, [fp, #-196]	; 0xc4
    ba78:	e0865003 	add	r5, r6, r3
    ba7c:	e7963003 	ldr	r3, [r6, r3]
    ba80:	eaffffc9 	b	b9ac <_nl_load_domain+0x9d0>
    ba84:	e3570000 	cmp	r7, #0
    ba88:	051b10a8 	ldreq	r1, [fp, #-168]	; 0xa8
    ba8c:	051b30d8 	ldreq	r3, [fp, #-216]	; 0xd8
    ba90:	151b30b8 	ldrne	r3, [fp, #-184]	; 0xb8
    ba94:	151bc0a8 	ldrne	ip, [fp, #-168]	; 0xa8
    ba98:	07938001 	ldreq	r8, [r3, r1]
    ba9c:	1793800c 	ldrne	r8, [r3, ip]
    baa0:	e51b10bc 	ldr	r1, [fp, #-188]	; 0xbc
    baa4:	e0818008 	add	r8, r1, r8
    baa8:	e5982008 	ldr	r2, [r8, #8]
    baac:	e2922001 	adds	r2, r2, #1
    bab0:	13a02001 	movne	r2, #1
    bab4:	eaffff20 	b	b73c <_nl_load_domain+0x760>
    bab8:	e51b50cc 	ldr	r5, [fp, #-204]	; 0xcc
    babc:	e51b60bc 	ldr	r6, [fp, #-188]	; 0xbc
    bac0:	e51ba0d4 	ldr	sl, [fp, #-212]	; 0xd4
    bac4:	e5950010 	ldr	r0, [r5, #16]
    bac8:	eafffe89 	b	b4f4 <_nl_load_domain+0x518>
    bacc:	e5962028 	ldr	r2, [r6, #40]	; 0x28
    bad0:	e596302c 	ldr	r3, [r6, #44]	; 0x2c
    bad4:	e0862002 	add	r2, r6, r2
    bad8:	e50b20d8 	str	r2, [fp, #-216]	; 0xd8
    badc:	eafffeee 	b	b69c <_nl_load_domain+0x6c0>
    bae0:	e51b60e0 	ldr	r6, [fp, #-224]	; 0xe0
    bae4:	e2866001 	add	r6, r6, #1
    bae8:	e50b60e0 	str	r6, [fp, #-224]	; 0xe0
    baec:	e51bc0d4 	ldr	ip, [fp, #-212]	; 0xd4
    baf0:	e51b50bc 	ldr	r5, [fp, #-188]	; 0xbc
    baf4:	e51b30b4 	ldr	r3, [fp, #-180]	; 0xb4
    baf8:	e28cc001 	add	ip, ip, #1
    bafc:	e2855004 	add	r5, r5, #4
    bb00:	e153000c 	cmp	r3, ip
    bb04:	e50bc0d4 	str	ip, [fp, #-212]	; 0xd4
    bb08:	e50b50bc 	str	r5, [fp, #-188]	; 0xbc
    bb0c:	8affff60 	bhi	b894 <_nl_load_domain+0x8b8>
    bb10:	e51bc0c8 	ldr	ip, [fp, #-200]	; 0xc8
    bb14:	e51b30e0 	ldr	r3, [fp, #-224]	; 0xe0
    bb18:	e51b60c4 	ldr	r6, [fp, #-196]	; 0xc4
    bb1c:	e15c0003 	cmp	ip, r3
    bb20:	e51b50e8 	ldr	r5, [fp, #-232]	; 0xe8
    bb24:	e51b80f0 	ldr	r8, [fp, #-240]	; 0xf0
    bb28:	e51ba0f4 	ldr	sl, [fp, #-244]	; 0xf4
    bb2c:	1a0001e5 	bne	c2c8 <_nl_load_domain+0x12ec>
    bb30:	e595e02c 	ldr	lr, [r5, #44]	; 0x2c
    bb34:	e35e0000 	cmp	lr, #0
    bb38:	13a03000 	movne	r3, #0
    bb3c:	15951034 	ldrne	r1, [r5, #52]	; 0x34
    bb40:	1595c030 	ldrne	ip, [r5, #48]	; 0x30
    bb44:	11a0e10e 	lslne	lr, lr, #2
    bb48:	0a00000a 	beq	bb78 <_nl_load_domain+0xb9c>
    bb4c:	e3510000 	cmp	r1, #0
    bb50:	179c0003 	ldrne	r0, [ip, r3]
    bb54:	079c2003 	ldreq	r2, [ip, r3]
    bb58:	10202860 	eorne	r2, r0, r0, ror #16
    bb5c:	11a02422 	lsrne	r2, r2, #8
    bb60:	13c22cff 	bicne	r2, r2, #65280	; 0xff00
    bb64:	10222460 	eorne	r2, r2, r0, ror #8
    bb68:	e7882003 	str	r2, [r8, r3]
    bb6c:	e2833004 	add	r3, r3, #4
    bb70:	e153000e 	cmp	r3, lr
    bb74:	1afffff4 	bne	bb4c <_nl_load_domain+0xb70>
    bb78:	e3a0c000 	mov	ip, #0
    bb7c:	e1a0700c 	mov	r7, ip
    bb80:	e50b60a8 	str	r6, [fp, #-168]	; 0xa8
    bb84:	e50ba0ac 	str	sl, [fp, #-172]	; 0xac
    bb88:	e51b60cc 	ldr	r6, [fp, #-204]	; 0xcc
    bb8c:	e0863187 	add	r3, r6, r7, lsl #3
    bb90:	e5930004 	ldr	r0, [r3, #4]
    bb94:	eb000906 	bl	dfb4 <__hash_string>
    bb98:	e595602c 	ldr	r6, [r5, #44]	; 0x2c
    bb9c:	e1a0a000 	mov	sl, r0
    bba0:	e1a01006 	mov	r1, r6
    bba4:	eb016918 	bl	6600c <__aeabi_uidivmod>
    bba8:	e1a0000a 	mov	r0, sl
    bbac:	e1a04001 	mov	r4, r1
    bbb0:	e2461002 	sub	r1, r6, #2
    bbb4:	eb016914 	bl	6600c <__aeabi_uidivmod>
    bbb8:	e2811001 	add	r1, r1, #1
    bbbc:	e0610006 	rsb	r0, r1, r6
    bbc0:	e066e001 	rsb	lr, r6, r1
    bbc4:	ea000002 	b	bbd4 <_nl_load_domain+0xbf8>
    bbc8:	e1540000 	cmp	r4, r0
    bbcc:	2084400e 	addcs	r4, r4, lr
    bbd0:	30844001 	addcc	r4, r4, r1
    bbd4:	e7983104 	ldr	r3, [r8, r4, lsl #2]
    bbd8:	e0882104 	add	r2, r8, r4, lsl #2
    bbdc:	e3530000 	cmp	r3, #0
    bbe0:	1afffff8 	bne	bbc8 <_nl_load_domain+0xbec>
    bbe4:	e5951014 	ldr	r1, [r5, #20]
    bbe8:	e51bc0c8 	ldr	ip, [fp, #-200]	; 0xc8
    bbec:	e2811001 	add	r1, r1, #1
    bbf0:	e0811007 	add	r1, r1, r7
    bbf4:	e2877001 	add	r7, r7, #1
    bbf8:	e157000c 	cmp	r7, ip
    bbfc:	e5821000 	str	r1, [r2]
    bc00:	1affffe0 	bne	bb88 <_nl_load_domain+0xbac>
    bc04:	e51bc0cc 	ldr	ip, [fp, #-204]	; 0xcc
    bc08:	e51b60a8 	ldr	r6, [fp, #-168]	; 0xa8
    bc0c:	e585c024 	str	ip, [r5, #36]	; 0x24
    bc10:	e51bc0ec 	ldr	ip, [fp, #-236]	; 0xec
    bc14:	e51ba0ac 	ldr	sl, [fp, #-172]	; 0xac
    bc18:	e5857020 	str	r7, [r5, #32]
    bc1c:	e585c028 	str	ip, [r5, #40]	; 0x28
    bc20:	e5858030 	str	r8, [r5, #48]	; 0x30
    bc24:	e5853034 	str	r3, [r5, #52]	; 0x34
    bc28:	eafffdb7 	b	b30c <_nl_load_domain+0x330>
    bc2c:	e3510000 	cmp	r1, #0
    bc30:	051b50d8 	ldreq	r5, [fp, #-216]	; 0xd8
    bc34:	151b60b8 	ldrne	r6, [fp, #-184]	; 0xb8
    bc38:	0795300c 	ldreq	r3, [r5, ip]
    bc3c:	1796300c 	ldrne	r3, [r6, ip]
    bc40:	e51b50c4 	ldr	r5, [fp, #-196]	; 0xc4
    bc44:	e0853003 	add	r3, r5, r3
    bc48:	e5932008 	ldr	r2, [r3, #8]
    bc4c:	e2922001 	adds	r2, r2, #1
    bc50:	13a02001 	movne	r2, #1
    bc54:	eaffff26 	b	b8f4 <_nl_load_domain+0x918>
    bc58:	e51b60e4 	ldr	r6, [fp, #-228]	; 0xe4
    bc5c:	e285c004 	add	ip, r5, #4
    bc60:	e586a004 	str	sl, [r6, #4]
    bc64:	e2856010 	add	r6, r5, #16
    bc68:	e285500c 	add	r5, r5, #12
    bc6c:	e1a03005 	mov	r3, r5
    bc70:	e1a04002 	mov	r4, r2
    bc74:	e1a05006 	mov	r5, r6
    bc78:	e50bc0ac 	str	ip, [fp, #-172]	; 0xac
    bc7c:	e1a06003 	mov	r6, r3
    bc80:	ea000019 	b	bcec <_nl_load_domain+0xd10>
    bc84:	e51b30ac 	ldr	r3, [fp, #-172]	; 0xac
    bc88:	e0832002 	add	r2, r3, r2
    bc8c:	e512c004 	ldr	ip, [r2, #-4]
    bc90:	e0242864 	eor	r2, r4, r4, ror #16
    bc94:	e02c186c 	eor	r1, ip, ip, ror #16
    bc98:	e1a01421 	lsr	r1, r1, #8
    bc9c:	e1a02422 	lsr	r2, r2, #8
    bca0:	e3c11cff 	bic	r1, r1, #65280	; 0xff00
    bca4:	e3c22cff 	bic	r2, r2, #65280	; 0xff00
    bca8:	e021c46c 	eor	ip, r1, ip, ror #8
    bcac:	e0224464 	eor	r4, r2, r4, ror #8
    bcb0:	e35c0000 	cmp	ip, #0
    bcb4:	1a000013 	bne	bd08 <_nl_load_domain+0xd2c>
    bcb8:	e3740001 	cmn	r4, #1
    bcbc:	e2855008 	add	r5, r5, #8
    bcc0:	0a00001b 	beq	bd34 <_nl_load_domain+0xd58>
    bcc4:	e7984104 	ldr	r4, [r8, r4, lsl #2]
    bcc8:	e1a00004 	mov	r0, r4
    bccc:	eb0044ef 	bl	1d090 <strlen>
    bcd0:	e1a0c000 	mov	ip, r0
    bcd4:	e1a01004 	mov	r1, r4
    bcd8:	e1a0000a 	mov	r0, sl
    bcdc:	e1a0200c 	mov	r2, ip
    bce0:	e08aa00c 	add	sl, sl, ip
    bce4:	eb0049e9 	bl	1e490 <memcpy>
    bce8:	e5154008 	ldr	r4, [r5, #-8]
    bcec:	e3570000 	cmp	r7, #0
    bcf0:	e0662005 	rsb	r2, r6, r5
    bcf4:	1affffe2 	bne	bc84 <_nl_load_domain+0xca8>
    bcf8:	e51bc0ac 	ldr	ip, [fp, #-172]	; 0xac
    bcfc:	e08c2002 	add	r2, ip, r2
    bd00:	e512c004 	ldr	ip, [r2, #-4]
    bd04:	eaffffe9 	b	bcb0 <_nl_load_domain+0xcd4>
    bd08:	e1a0000a 	mov	r0, sl
    bd0c:	e1a0200c 	mov	r2, ip
    bd10:	e51b10a8 	ldr	r1, [fp, #-168]	; 0xa8
    bd14:	e50bc0f8 	str	ip, [fp, #-248]	; 0xf8
    bd18:	eb0049dc 	bl	1e490 <memcpy>
    bd1c:	e51bc0f8 	ldr	ip, [fp, #-248]	; 0xf8
    bd20:	e51b30a8 	ldr	r3, [fp, #-168]	; 0xa8
    bd24:	e08aa00c 	add	sl, sl, ip
    bd28:	e083300c 	add	r3, r3, ip
    bd2c:	e50b30a8 	str	r3, [fp, #-168]	; 0xa8
    bd30:	eaffffe0 	b	bcb8 <_nl_load_domain+0xcdc>
    bd34:	e51b50e4 	ldr	r5, [fp, #-228]	; 0xe4
    bd38:	e51bc0d0 	ldr	ip, [fp, #-208]	; 0xd0
    bd3c:	e5953004 	ldr	r3, [r5, #4]
    bd40:	e51b60dc 	ldr	r6, [fp, #-220]	; 0xdc
    bd44:	e063300a 	rsb	r3, r3, sl
    bd48:	e78c3006 	str	r3, [ip, r6]
    bd4c:	eaffff37 	b	ba30 <_nl_load_domain+0xa54>
    bd50:	e3720001 	cmn	r2, #1
    bd54:	1affffbf 	bne	bc58 <_nl_load_domain+0xc7c>
    bd58:	e5953004 	ldr	r3, [r5, #4]
    bd5c:	eaffff2d 	b	ba18 <_nl_load_domain+0xa3c>
    bd60:	e5d33005 	ldrb	r3, [r3, #5]
    bd64:	e3530000 	cmp	r3, #0
    bd68:	1afffe2b 	bne	b61c <_nl_load_domain+0x640>
    bd6c:	e51b30b8 	ldr	r3, [fp, #-184]	; 0xb8
    bd70:	e3530000 	cmp	r3, #0
    bd74:	1a000078 	bne	bf5c <_nl_load_domain+0xf80>
    bd78:	e3550000 	cmp	r5, #0
    bd7c:	1a000074 	bne	bf54 <_nl_load_domain+0xf78>
    bd80:	e351006f 	cmp	r1, #111	; 0x6f
    bd84:	0a000070 	beq	bf4c <_nl_load_domain+0xf70>
    bd88:	e3510075 	cmp	r1, #117	; 0x75
    bd8c:	0a00006c 	beq	bf44 <_nl_load_domain+0xf68>
    bd90:	e3510078 	cmp	r1, #120	; 0x78
    bd94:	0a000072 	beq	bf64 <_nl_load_domain+0xf88>
    bd98:	e3510058 	cmp	r1, #88	; 0x58
    bd9c:	1a000149 	bne	c2c8 <_nl_load_domain+0x12ec>
    bda0:	e59fc204 	ldr	ip, [pc, #516]	; bfac <_nl_load_domain+0xfd0>
    bda4:	eafffdc5 	b	b4c0 <_nl_load_domain+0x4e4>
    bda8:	e5d3c005 	ldrb	ip, [r3, #5]
    bdac:	e35c0036 	cmp	ip, #54	; 0x36
    bdb0:	1afffe19 	bne	b61c <_nl_load_domain+0x640>
    bdb4:	e5d33006 	ldrb	r3, [r3, #6]
    bdb8:	e3530000 	cmp	r3, #0
    bdbc:	1afffe16 	bne	b61c <_nl_load_domain+0x640>
    bdc0:	e51bc0b8 	ldr	ip, [fp, #-184]	; 0xb8
    bdc4:	e35c0000 	cmp	ip, #0
    bdc8:	1a000145 	bne	c2e4 <_nl_load_domain+0x1308>
    bdcc:	e3550000 	cmp	r5, #0
    bdd0:	1a000141 	bne	c2dc <_nl_load_domain+0x1300>
    bdd4:	e351006f 	cmp	r1, #111	; 0x6f
    bdd8:	0a00013d 	beq	c2d4 <_nl_load_domain+0x12f8>
    bddc:	e3510075 	cmp	r1, #117	; 0x75
    bde0:	0a000139 	beq	c2cc <_nl_load_domain+0x12f0>
    bde4:	e3510078 	cmp	r1, #120	; 0x78
    bde8:	0a000134 	beq	c2c0 <_nl_load_domain+0x12e4>
    bdec:	e3510058 	cmp	r1, #88	; 0x58
    bdf0:	1a000134 	bne	c2c8 <_nl_load_domain+0x12ec>
    bdf4:	e59fc1b0 	ldr	ip, [pc, #432]	; bfac <_nl_load_domain+0xfd0>
    bdf8:	eafffdb0 	b	b4c0 <_nl_load_domain+0x4e4>
    bdfc:	e35c0036 	cmp	ip, #54	; 0x36
    be00:	1a00006f 	bne	bfc4 <_nl_load_domain+0xfe8>
    be04:	e5d3c005 	ldrb	ip, [r3, #5]
    be08:	e35c0034 	cmp	ip, #52	; 0x34
    be0c:	13a0c000 	movne	ip, #0
    be10:	1afffdaa 	bne	b4c0 <_nl_load_domain+0x4e4>
    be14:	e5d33006 	ldrb	r3, [r3, #6]
    be18:	e3530000 	cmp	r3, #0
    be1c:	1a000023 	bne	beb0 <_nl_load_domain+0xed4>
    be20:	e51bc0b8 	ldr	ip, [fp, #-184]	; 0xb8
    be24:	e35c0000 	cmp	ip, #0
    be28:	1a000111 	bne	c274 <_nl_load_domain+0x1298>
    be2c:	e3550000 	cmp	r5, #0
    be30:	1a00010d 	bne	c26c <_nl_load_domain+0x1290>
    be34:	e351006f 	cmp	r1, #111	; 0x6f
    be38:	0a00012d 	beq	c2f4 <_nl_load_domain+0x1318>
    be3c:	e3510075 	cmp	r1, #117	; 0x75
    be40:	0a000129 	beq	c2ec <_nl_load_domain+0x1310>
    be44:	e3510078 	cmp	r1, #120	; 0x78
    be48:	0a00012b 	beq	c2fc <_nl_load_domain+0x1320>
    be4c:	e3510058 	cmp	r1, #88	; 0x58
    be50:	1a00011c 	bne	c2c8 <_nl_load_domain+0x12ec>
    be54:	e59fc138 	ldr	ip, [pc, #312]	; bf94 <_nl_load_domain+0xfb8>
    be58:	eafffd98 	b	b4c0 <_nl_load_domain+0x4e4>
    be5c:	e1a00009 	mov	r0, r9
    be60:	eb0055b3 	bl	21534 <__lll_lock_wait_private>
    be64:	eafffc75 	b	b040 <_nl_load_domain+0x64>
    be68:	e5d33006 	ldrb	r3, [r3, #6]
    be6c:	e3530000 	cmp	r3, #0
    be70:	1afffde9 	bne	b61c <_nl_load_domain+0x640>
    be74:	e51b30b8 	ldr	r3, [fp, #-184]	; 0xb8
    be78:	e3530000 	cmp	r3, #0
    be7c:	1a000128 	bne	c324 <_nl_load_domain+0x1348>
    be80:	e3550000 	cmp	r5, #0
    be84:	1a000124 	bne	c31c <_nl_load_domain+0x1340>
    be88:	e351006f 	cmp	r1, #111	; 0x6f
    be8c:	0a000120 	beq	c314 <_nl_load_domain+0x1338>
    be90:	e3510075 	cmp	r1, #117	; 0x75
    be94:	0a00011c 	beq	c30c <_nl_load_domain+0x1330>
    be98:	e3510078 	cmp	r1, #120	; 0x78
    be9c:	0a000118 	beq	c304 <_nl_load_domain+0x1328>
    bea0:	e3510058 	cmp	r1, #88	; 0x58
    bea4:	1a000107 	bne	c2c8 <_nl_load_domain+0x12ec>
    bea8:	e59fc0fc 	ldr	ip, [pc, #252]	; bfac <_nl_load_domain+0xfd0>
    beac:	eafffd83 	b	b4c0 <_nl_load_domain+0x4e4>
    beb0:	e3a0c000 	mov	ip, #0
    beb4:	eafffd81 	b	b4c0 <_nl_load_domain+0x4e4>
    beb8:	e51b009c 	ldr	r0, [fp, #-156]	; 0x9c
    bebc:	eb003b4b 	bl	1abf0 <__libc_malloc>
    bec0:	e2506000 	subs	r6, r0, #0
    bec4:	0afffd2f 	beq	b388 <_nl_load_domain+0x3ac>
    bec8:	e1a05006 	mov	r5, r6
    becc:	e51b309c 	ldr	r3, [fp, #-156]	; 0x9c
    bed0:	e59f80b8 	ldr	r8, [pc, #184]	; bf90 <_nl_load_domain+0xfb4>
    bed4:	e1a00004 	mov	r0, r4
    bed8:	e1a01005 	mov	r1, r5
    bedc:	e1a02003 	mov	r2, r3
    bee0:	e3a07003 	mov	r7, #3
    bee4:	ef000000 	svc	0x00000000
    bee8:	e3700a01 	cmn	r0, #4096	; 0x1000
    beec:	e1a02000 	mov	r2, r0
    bef0:	8afffd1b 	bhi	b364 <_nl_load_domain+0x388>
    bef4:	e3500000 	cmp	r0, #0
    bef8:	dafffd22 	ble	b388 <_nl_load_domain+0x3ac>
    befc:	e0533000 	subs	r3, r3, r0
    bf00:	e0855000 	add	r5, r5, r0
    bf04:	1afffff2 	bne	bed4 <_nl_load_domain+0xef8>
    bf08:	e1a00004 	mov	r0, r4
    bf0c:	e3a07006 	mov	r7, #6
    bf10:	ef000000 	svc	0x00000000
    bf14:	e59f1054 	ldr	r1, [pc, #84]	; bf70 <_nl_load_domain+0xf94>
    bf18:	e5963000 	ldr	r3, [r6]
    bf1c:	e59f2050 	ldr	r2, [pc, #80]	; bf74 <_nl_load_domain+0xf98>
    bf20:	e0534001 	subs	r4, r3, r1
    bf24:	13a04001 	movne	r4, #1
    bf28:	e1530002 	cmp	r3, r2
    bf2c:	03a03000 	moveq	r3, #0
    bf30:	12043001 	andne	r3, r4, #1
    bf34:	e3530000 	cmp	r3, #0
    bf38:	1a0000dd 	bne	c2b4 <_nl_load_domain+0x12d8>
    bf3c:	e50b30a4 	str	r3, [fp, #-164]	; 0xa4
    bf40:	eafffc8e 	b	b180 <_nl_load_domain+0x1a4>
    bf44:	e59fc068 	ldr	ip, [pc, #104]	; bfb4 <_nl_load_domain+0xfd8>
    bf48:	eafffd5c 	b	b4c0 <_nl_load_domain+0x4e4>
    bf4c:	e59fc064 	ldr	ip, [pc, #100]	; bfb8 <_nl_load_domain+0xfdc>
    bf50:	eafffd5a 	b	b4c0 <_nl_load_domain+0x4e4>
    bf54:	e59fc060 	ldr	ip, [pc, #96]	; bfbc <_nl_load_domain+0xfe0>
    bf58:	eafffd58 	b	b4c0 <_nl_load_domain+0x4e4>
    bf5c:	e59fc05c 	ldr	ip, [pc, #92]	; bfc0 <_nl_load_domain+0xfe4>
    bf60:	eafffd56 	b	b4c0 <_nl_load_domain+0x4e4>
    bf64:	e59fc044 	ldr	ip, [pc, #68]	; bfb0 <_nl_load_domain+0xfd4>
    bf68:	eafffd54 	b	b4c0 <_nl_load_domain+0x4e4>
    bf6c:	0008a184 	.word	0x0008a184
    bf70:	950412de 	.word	0x950412de
    bf74:	de120495 	.word	0xde120495
    bf78:	0007ddc8 	.word	0x0007ddc8
    bf7c:	00000000 	.word	0x00000000
    bf80:	0007d170 	.word	0x0007d170
    bf84:	0007dcc8 	.word	0x0007dcc8
    bf88:	00069ddc 	.word	0x00069ddc
    bf8c:	00000000 	.word	0x00000000
    bf90:	0007dcc0 	.word	0x0007dcc0
    bf94:	00069de4 	.word	0x00069de4
    bf98:	00069dd8 	.word	0x00069dd8
    bf9c:	00069de0 	.word	0x00069de0
    bfa0:	00069dd4 	.word	0x00069dd4
    bfa4:	00069dec 	.word	0x00069dec
    bfa8:	00069de8 	.word	0x00069de8
    bfac:	0006b8c4 	.word	0x0006b8c4
    bfb0:	00069dd0 	.word	0x00069dd0
    bfb4:	00069dcc 	.word	0x00069dcc
    bfb8:	0006bdf4 	.word	0x0006bdf4
    bfbc:	0007c200 	.word	0x0007c200
    bfc0:	0007fd14 	.word	0x0007fd14
    bfc4:	e35c004c 	cmp	ip, #76	; 0x4c
    bfc8:	1a00002f 	bne	c08c <_nl_load_domain+0x10b0>
    bfcc:	e5d3c005 	ldrb	ip, [r3, #5]
    bfd0:	e35c0045 	cmp	ip, #69	; 0x45
    bfd4:	13a0c000 	movne	ip, #0
    bfd8:	1afffd38 	bne	b4c0 <_nl_load_domain+0x4e4>
    bfdc:	e5d3c006 	ldrb	ip, [r3, #6]
    bfe0:	e35c0041 	cmp	ip, #65	; 0x41
    bfe4:	13a0c000 	movne	ip, #0
    bfe8:	1afffd34 	bne	b4c0 <_nl_load_domain+0x4e4>
    bfec:	e5d3c007 	ldrb	ip, [r3, #7]
    bff0:	e35c0053 	cmp	ip, #83	; 0x53
    bff4:	13a0c000 	movne	ip, #0
    bff8:	1afffd30 	bne	b4c0 <_nl_load_domain+0x4e4>
    bffc:	e5d3c008 	ldrb	ip, [r3, #8]
    c000:	e35c0054 	cmp	ip, #84	; 0x54
    c004:	13a0c000 	movne	ip, #0
    c008:	1afffd2c 	bne	b4c0 <_nl_load_domain+0x4e4>
    c00c:	e5d3c009 	ldrb	ip, [r3, #9]
    c010:	e35c0038 	cmp	ip, #56	; 0x38
    c014:	0a0000fa 	beq	c404 <_nl_load_domain+0x1428>
    c018:	e35c0031 	cmp	ip, #49	; 0x31
    c01c:	0a0000e2 	beq	c3ac <_nl_load_domain+0x13d0>
    c020:	e35c0033 	cmp	ip, #51	; 0x33
    c024:	0a0000ca 	beq	c354 <_nl_load_domain+0x1378>
    c028:	e35c0036 	cmp	ip, #54	; 0x36
    c02c:	13a0c000 	movne	ip, #0
    c030:	1afffd22 	bne	b4c0 <_nl_load_domain+0x4e4>
    c034:	e5d3c00a 	ldrb	ip, [r3, #10]
    c038:	e35c0034 	cmp	ip, #52	; 0x34
    c03c:	13a0c000 	movne	ip, #0
    c040:	1afffd1e 	bne	b4c0 <_nl_load_domain+0x4e4>
    c044:	e5d3300b 	ldrb	r3, [r3, #11]
    c048:	e3530000 	cmp	r3, #0
    c04c:	1a0000be 	bne	c34c <_nl_load_domain+0x1370>
    c050:	e51bc0b8 	ldr	ip, [fp, #-184]	; 0xb8
    c054:	e35c0000 	cmp	ip, #0
    c058:	1a0000b9 	bne	c344 <_nl_load_domain+0x1368>
    c05c:	e3550000 	cmp	r5, #0
    c060:	1a0000b5 	bne	c33c <_nl_load_domain+0x1360>
    c064:	e351006f 	cmp	r1, #111	; 0x6f
    c068:	0a0000b1 	beq	c334 <_nl_load_domain+0x1358>
    c06c:	e3510075 	cmp	r1, #117	; 0x75
    c070:	0a0000ad 	beq	c32c <_nl_load_domain+0x1350>
    c074:	e3510078 	cmp	r1, #120	; 0x78
    c078:	0a000083 	beq	c28c <_nl_load_domain+0x12b0>
    c07c:	e3510058 	cmp	r1, #88	; 0x58
    c080:	1a000090 	bne	c2c8 <_nl_load_domain+0x12ec>
    c084:	e51fc0f8 	ldr	ip, [pc, #-248]	; bf94 <_nl_load_domain+0xfb8>
    c088:	eafffd0c 	b	b4c0 <_nl_load_domain+0x4e4>
    c08c:	e35c0046 	cmp	ip, #70	; 0x46
    c090:	1a00002b 	bne	c144 <_nl_load_domain+0x1168>
    c094:	e5d3c005 	ldrb	ip, [r3, #5]
    c098:	e35c0041 	cmp	ip, #65	; 0x41
    c09c:	13a0c000 	movne	ip, #0
    c0a0:	1afffd06 	bne	b4c0 <_nl_load_domain+0x4e4>
    c0a4:	e5d3c006 	ldrb	ip, [r3, #6]
    c0a8:	e35c0053 	cmp	ip, #83	; 0x53
    c0ac:	13a0c000 	movne	ip, #0
    c0b0:	1afffd02 	bne	b4c0 <_nl_load_domain+0x4e4>
    c0b4:	e5d3c007 	ldrb	ip, [r3, #7]
    c0b8:	e35c0054 	cmp	ip, #84	; 0x54
    c0bc:	13a0c000 	movne	ip, #0
    c0c0:	1afffcfe 	bne	b4c0 <_nl_load_domain+0x4e4>
    c0c4:	e5d3c008 	ldrb	ip, [r3, #8]
    c0c8:	e35c0038 	cmp	ip, #56	; 0x38
    c0cc:	0a000138 	beq	c5b4 <_nl_load_domain+0x15d8>
    c0d0:	e35c0031 	cmp	ip, #49	; 0x31
    c0d4:	0a000120 	beq	c55c <_nl_load_domain+0x1580>
    c0d8:	e35c0033 	cmp	ip, #51	; 0x33
    c0dc:	0a000108 	beq	c504 <_nl_load_domain+0x1528>
    c0e0:	e35c0036 	cmp	ip, #54	; 0x36
    c0e4:	13a0c000 	movne	ip, #0
    c0e8:	1afffcf4 	bne	b4c0 <_nl_load_domain+0x4e4>
    c0ec:	e5d3c009 	ldrb	ip, [r3, #9]
    c0f0:	e35c0034 	cmp	ip, #52	; 0x34
    c0f4:	13a0c000 	movne	ip, #0
    c0f8:	1afffcf0 	bne	b4c0 <_nl_load_domain+0x4e4>
    c0fc:	e5d3300a 	ldrb	r3, [r3, #10]
    c100:	e3530000 	cmp	r3, #0
    c104:	1a0000fc 	bne	c4fc <_nl_load_domain+0x1520>
    c108:	e51bc0b8 	ldr	ip, [fp, #-184]	; 0xb8
    c10c:	e35c0000 	cmp	ip, #0
    c110:	1a0000f7 	bne	c4f4 <_nl_load_domain+0x1518>
    c114:	e3550000 	cmp	r5, #0
    c118:	1a0000f3 	bne	c4ec <_nl_load_domain+0x1510>
    c11c:	e351006f 	cmp	r1, #111	; 0x6f
    c120:	0a0000ef 	beq	c4e4 <_nl_load_domain+0x1508>
    c124:	e3510075 	cmp	r1, #117	; 0x75
    c128:	0a0000eb 	beq	c4dc <_nl_load_domain+0x1500>
    c12c:	e3510078 	cmp	r1, #120	; 0x78
    c130:	0a000041 	beq	c23c <_nl_load_domain+0x1260>
    c134:	e3510058 	cmp	r1, #88	; 0x58
    c138:	1a000062 	bne	c2c8 <_nl_load_domain+0x12ec>
    c13c:	e51fc1b0 	ldr	ip, [pc, #-432]	; bf94 <_nl_load_domain+0xfb8>
    c140:	eafffcde 	b	b4c0 <_nl_load_domain+0x4e4>
    c144:	e35c004d 	cmp	ip, #77	; 0x4d
    c148:	1a00001b 	bne	c1bc <_nl_load_domain+0x11e0>
    c14c:	e5d3c005 	ldrb	ip, [r3, #5]
    c150:	e35c0041 	cmp	ip, #65	; 0x41
    c154:	13a0c000 	movne	ip, #0
    c158:	1afffcd8 	bne	b4c0 <_nl_load_domain+0x4e4>
    c15c:	e5d3c006 	ldrb	ip, [r3, #6]
    c160:	e35c0058 	cmp	ip, #88	; 0x58
    c164:	13a0c000 	movne	ip, #0
    c168:	1afffcd4 	bne	b4c0 <_nl_load_domain+0x4e4>
    c16c:	e5d33007 	ldrb	r3, [r3, #7]
    c170:	e3530000 	cmp	r3, #0
    c174:	1a00000e 	bne	c1b4 <_nl_load_domain+0x11d8>
    c178:	e51b30b8 	ldr	r3, [fp, #-184]	; 0xb8
    c17c:	e3530000 	cmp	r3, #0
    c180:	1a000049 	bne	c2ac <_nl_load_domain+0x12d0>
    c184:	e3550000 	cmp	r5, #0
    c188:	1a000045 	bne	c2a4 <_nl_load_domain+0x12c8>
    c18c:	e351006f 	cmp	r1, #111	; 0x6f
    c190:	0a000041 	beq	c29c <_nl_load_domain+0x12c0>
    c194:	e3510075 	cmp	r1, #117	; 0x75
    c198:	0a00003d 	beq	c294 <_nl_load_domain+0x12b8>
    c19c:	e3510078 	cmp	r1, #120	; 0x78
    c1a0:	0a000027 	beq	c244 <_nl_load_domain+0x1268>
    c1a4:	e3510058 	cmp	r1, #88	; 0x58
    c1a8:	1a000046 	bne	c2c8 <_nl_load_domain+0x12ec>
    c1ac:	e51fc220 	ldr	ip, [pc, #-544]	; bf94 <_nl_load_domain+0xfb8>
    c1b0:	eafffcc2 	b	b4c0 <_nl_load_domain+0x4e4>
    c1b4:	e3a0c000 	mov	ip, #0
    c1b8:	eafffcc0 	b	b4c0 <_nl_load_domain+0x4e4>
    c1bc:	e35c0050 	cmp	ip, #80	; 0x50
    c1c0:	1afffd15 	bne	b61c <_nl_load_domain+0x640>
    c1c4:	e5d3c005 	ldrb	ip, [r3, #5]
    c1c8:	e35c0054 	cmp	ip, #84	; 0x54
    c1cc:	13a0c000 	movne	ip, #0
    c1d0:	1afffcba 	bne	b4c0 <_nl_load_domain+0x4e4>
    c1d4:	e5d3c006 	ldrb	ip, [r3, #6]
    c1d8:	e35c0052 	cmp	ip, #82	; 0x52
    c1dc:	13a0c000 	movne	ip, #0
    c1e0:	1afffcb6 	bne	b4c0 <_nl_load_domain+0x4e4>
    c1e4:	e5d33007 	ldrb	r3, [r3, #7]
    c1e8:	e3530000 	cmp	r3, #0
    c1ec:	1a00000e 	bne	c22c <_nl_load_domain+0x1250>
    c1f0:	e51bc0b8 	ldr	ip, [fp, #-184]	; 0xb8
    c1f4:	e35c0000 	cmp	ip, #0
    c1f8:	1a000019 	bne	c264 <_nl_load_domain+0x1288>
    c1fc:	e3550000 	cmp	r5, #0
    c200:	1a000015 	bne	c25c <_nl_load_domain+0x1280>
    c204:	e351006f 	cmp	r1, #111	; 0x6f
    c208:	0a000011 	beq	c254 <_nl_load_domain+0x1278>
    c20c:	e3510075 	cmp	r1, #117	; 0x75
    c210:	0a00000d 	beq	c24c <_nl_load_domain+0x1270>
    c214:	e3510078 	cmp	r1, #120	; 0x78
    c218:	0a000005 	beq	c234 <_nl_load_domain+0x1258>
    c21c:	e3510058 	cmp	r1, #88	; 0x58
    c220:	1a000028 	bne	c2c8 <_nl_load_domain+0x12ec>
    c224:	e51fc280 	ldr	ip, [pc, #-640]	; bfac <_nl_load_domain+0xfd0>
    c228:	eafffca4 	b	b4c0 <_nl_load_domain+0x4e4>
    c22c:	e3a0c000 	mov	ip, #0
    c230:	eafffca2 	b	b4c0 <_nl_load_domain+0x4e4>
    c234:	e51fc28c 	ldr	ip, [pc, #-652]	; bfb0 <_nl_load_domain+0xfd4>
    c238:	eafffca0 	b	b4c0 <_nl_load_domain+0x4e4>
    c23c:	e51fc2ac 	ldr	ip, [pc, #-684]	; bf98 <_nl_load_domain+0xfbc>
    c240:	eafffc9e 	b	b4c0 <_nl_load_domain+0x4e4>
    c244:	e51fc2b4 	ldr	ip, [pc, #-692]	; bf98 <_nl_load_domain+0xfbc>
    c248:	eafffc9c 	b	b4c0 <_nl_load_domain+0x4e4>
    c24c:	e51fc2a0 	ldr	ip, [pc, #-672]	; bfb4 <_nl_load_domain+0xfd8>
    c250:	eafffc9a 	b	b4c0 <_nl_load_domain+0x4e4>
    c254:	e51fc2a4 	ldr	ip, [pc, #-676]	; bfb8 <_nl_load_domain+0xfdc>
    c258:	eafffc98 	b	b4c0 <_nl_load_domain+0x4e4>
    c25c:	e51fc2a8 	ldr	ip, [pc, #-680]	; bfbc <_nl_load_domain+0xfe0>
    c260:	eafffc96 	b	b4c0 <_nl_load_domain+0x4e4>
    c264:	e51fc2ac 	ldr	ip, [pc, #-684]	; bfc0 <_nl_load_domain+0xfe4>
    c268:	eafffc94 	b	b4c0 <_nl_load_domain+0x4e4>
    c26c:	e51fc2d0 	ldr	ip, [pc, #-720]	; bfa4 <_nl_load_domain+0xfc8>
    c270:	eafffc92 	b	b4c0 <_nl_load_domain+0x4e4>
    c274:	e51fc2d4 	ldr	ip, [pc, #-724]	; bfa8 <_nl_load_domain+0xfcc>
    c278:	eafffc90 	b	b4c0 <_nl_load_domain+0x4e4>
    c27c:	e1a00006 	mov	r0, r6
    c280:	e51b109c 	ldr	r1, [fp, #-156]	; 0x9c
    c284:	eb00506d 	bl	20440 <__munmap>
    c288:	eafffc33 	b	b35c <_nl_load_domain+0x380>
    c28c:	e51fc2fc 	ldr	ip, [pc, #-764]	; bf98 <_nl_load_domain+0xfbc>
    c290:	eafffc8a 	b	b4c0 <_nl_load_domain+0x4e4>
    c294:	e51fc300 	ldr	ip, [pc, #-768]	; bf9c <_nl_load_domain+0xfc0>
    c298:	eafffc88 	b	b4c0 <_nl_load_domain+0x4e4>
    c29c:	e51fc304 	ldr	ip, [pc, #-772]	; bfa0 <_nl_load_domain+0xfc4>
    c2a0:	eafffc86 	b	b4c0 <_nl_load_domain+0x4e4>
    c2a4:	e51fc308 	ldr	ip, [pc, #-776]	; bfa4 <_nl_load_domain+0xfc8>
    c2a8:	eafffc84 	b	b4c0 <_nl_load_domain+0x4e4>
    c2ac:	e51fc30c 	ldr	ip, [pc, #-780]	; bfa8 <_nl_load_domain+0xfcc>
    c2b0:	eafffc82 	b	b4c0 <_nl_load_domain+0x4e4>
    c2b4:	e1a00006 	mov	r0, r6
    c2b8:	eb003c3b 	bl	1b3ac <__cfree>
    c2bc:	eafffc26 	b	b35c <_nl_load_domain+0x380>
    c2c0:	e51fc318 	ldr	ip, [pc, #-792]	; bfb0 <_nl_load_domain+0xfd4>
    c2c4:	eafffc7d 	b	b4c0 <_nl_load_domain+0x4e4>
    c2c8:	eb000748 	bl	dff0 <abort>
    c2cc:	e51fc320 	ldr	ip, [pc, #-800]	; bfb4 <_nl_load_domain+0xfd8>
    c2d0:	eafffc7a 	b	b4c0 <_nl_load_domain+0x4e4>
    c2d4:	e51fc324 	ldr	ip, [pc, #-804]	; bfb8 <_nl_load_domain+0xfdc>
    c2d8:	eafffc78 	b	b4c0 <_nl_load_domain+0x4e4>
    c2dc:	e51fc328 	ldr	ip, [pc, #-808]	; bfbc <_nl_load_domain+0xfe0>
    c2e0:	eafffc76 	b	b4c0 <_nl_load_domain+0x4e4>
    c2e4:	e51fc32c 	ldr	ip, [pc, #-812]	; bfc0 <_nl_load_domain+0xfe4>
    c2e8:	eafffc74 	b	b4c0 <_nl_load_domain+0x4e4>
    c2ec:	e51fc358 	ldr	ip, [pc, #-856]	; bf9c <_nl_load_domain+0xfc0>
    c2f0:	eafffc72 	b	b4c0 <_nl_load_domain+0x4e4>
    c2f4:	e51fc35c 	ldr	ip, [pc, #-860]	; bfa0 <_nl_load_domain+0xfc4>
    c2f8:	eafffc70 	b	b4c0 <_nl_load_domain+0x4e4>
    c2fc:	e51fc36c 	ldr	ip, [pc, #-876]	; bf98 <_nl_load_domain+0xfbc>
    c300:	eafffc6e 	b	b4c0 <_nl_load_domain+0x4e4>
    c304:	e51fc35c 	ldr	ip, [pc, #-860]	; bfb0 <_nl_load_domain+0xfd4>
    c308:	eafffc6c 	b	b4c0 <_nl_load_domain+0x4e4>
    c30c:	e51fc360 	ldr	ip, [pc, #-864]	; bfb4 <_nl_load_domain+0xfd8>
    c310:	eafffc6a 	b	b4c0 <_nl_load_domain+0x4e4>
    c314:	e51fc364 	ldr	ip, [pc, #-868]	; bfb8 <_nl_load_domain+0xfdc>
    c318:	eafffc68 	b	b4c0 <_nl_load_domain+0x4e4>
    c31c:	e51fc368 	ldr	ip, [pc, #-872]	; bfbc <_nl_load_domain+0xfe0>
    c320:	eafffc66 	b	b4c0 <_nl_load_domain+0x4e4>
    c324:	e51fc36c 	ldr	ip, [pc, #-876]	; bfc0 <_nl_load_domain+0xfe4>
    c328:	eafffc64 	b	b4c0 <_nl_load_domain+0x4e4>
    c32c:	e51fc398 	ldr	ip, [pc, #-920]	; bf9c <_nl_load_domain+0xfc0>
    c330:	eafffc62 	b	b4c0 <_nl_load_domain+0x4e4>
    c334:	e51fc39c 	ldr	ip, [pc, #-924]	; bfa0 <_nl_load_domain+0xfc4>
    c338:	eafffc60 	b	b4c0 <_nl_load_domain+0x4e4>
    c33c:	e51fc3a0 	ldr	ip, [pc, #-928]	; bfa4 <_nl_load_domain+0xfc8>
    c340:	eafffc5e 	b	b4c0 <_nl_load_domain+0x4e4>
    c344:	e51fc3a4 	ldr	ip, [pc, #-932]	; bfa8 <_nl_load_domain+0xfcc>
    c348:	eafffc5c 	b	b4c0 <_nl_load_domain+0x4e4>
    c34c:	e3a0c000 	mov	ip, #0
    c350:	eafffc5a 	b	b4c0 <_nl_load_domain+0x4e4>
    c354:	e5d3c00a 	ldrb	ip, [r3, #10]
    c358:	e35c0032 	cmp	ip, #50	; 0x32
    c35c:	13a0c000 	movne	ip, #0
    c360:	1afffc56 	bne	b4c0 <_nl_load_domain+0x4e4>
    c364:	e5d3300b 	ldrb	r3, [r3, #11]
    c368:	e3530000 	cmp	r3, #0
    c36c:	1a000058 	bne	c4d4 <_nl_load_domain+0x14f8>
    c370:	e51b30b8 	ldr	r3, [fp, #-184]	; 0xb8
    c374:	e3530000 	cmp	r3, #0
    c378:	1a000053 	bne	c4cc <_nl_load_domain+0x14f0>
    c37c:	e3550000 	cmp	r5, #0
    c380:	1a00004f 	bne	c4c4 <_nl_load_domain+0x14e8>
    c384:	e351006f 	cmp	r1, #111	; 0x6f
    c388:	0a00004b 	beq	c4bc <_nl_load_domain+0x14e0>
    c38c:	e3510075 	cmp	r1, #117	; 0x75
    c390:	0a000047 	beq	c4b4 <_nl_load_domain+0x14d8>
    c394:	e3510078 	cmp	r1, #120	; 0x78
    c398:	0a000043 	beq	c4ac <_nl_load_domain+0x14d0>
    c39c:	e3510058 	cmp	r1, #88	; 0x58
    c3a0:	1affffc8 	bne	c2c8 <_nl_load_domain+0x12ec>
    c3a4:	e51fc400 	ldr	ip, [pc, #-1024]	; bfac <_nl_load_domain+0xfd0>
    c3a8:	eafffc44 	b	b4c0 <_nl_load_domain+0x4e4>
    c3ac:	e5d3c00a 	ldrb	ip, [r3, #10]
    c3b0:	e35c0036 	cmp	ip, #54	; 0x36
    c3b4:	13a0c000 	movne	ip, #0
    c3b8:	1afffc40 	bne	b4c0 <_nl_load_domain+0x4e4>
    c3bc:	e5d3300b 	ldrb	r3, [r3, #11]
    c3c0:	e3530000 	cmp	r3, #0
    c3c4:	1a000036 	bne	c4a4 <_nl_load_domain+0x14c8>
    c3c8:	e51bc0b8 	ldr	ip, [fp, #-184]	; 0xb8
    c3cc:	e35c0000 	cmp	ip, #0
    c3d0:	1a000031 	bne	c49c <_nl_load_domain+0x14c0>
    c3d4:	e3550000 	cmp	r5, #0
    c3d8:	1a000021 	bne	c464 <_nl_load_domain+0x1488>
    c3dc:	e351006f 	cmp	r1, #111	; 0x6f
    c3e0:	0a00001d 	beq	c45c <_nl_load_domain+0x1480>
    c3e4:	e3510075 	cmp	r1, #117	; 0x75
    c3e8:	0a000019 	beq	c454 <_nl_load_domain+0x1478>
    c3ec:	e3510078 	cmp	r1, #120	; 0x78
    c3f0:	0a000015 	beq	c44c <_nl_load_domain+0x1470>
    c3f4:	e3510058 	cmp	r1, #88	; 0x58
    c3f8:	1affffb2 	bne	c2c8 <_nl_load_domain+0x12ec>
    c3fc:	e51fc458 	ldr	ip, [pc, #-1112]	; bfac <_nl_load_domain+0xfd0>
    c400:	eafffc2e 	b	b4c0 <_nl_load_domain+0x4e4>
    c404:	e5d3300a 	ldrb	r3, [r3, #10]
    c408:	e3530000 	cmp	r3, #0
    c40c:	1a000020 	bne	c494 <_nl_load_domain+0x14b8>
    c410:	e51b30b8 	ldr	r3, [fp, #-184]	; 0xb8
    c414:	e3530000 	cmp	r3, #0
    c418:	1a00001b 	bne	c48c <_nl_load_domain+0x14b0>
    c41c:	e3550000 	cmp	r5, #0
    c420:	1a000017 	bne	c484 <_nl_load_domain+0x14a8>
    c424:	e351006f 	cmp	r1, #111	; 0x6f
    c428:	0a000013 	beq	c47c <_nl_load_domain+0x14a0>
    c42c:	e3510075 	cmp	r1, #117	; 0x75
    c430:	0a00000f 	beq	c474 <_nl_load_domain+0x1498>
    c434:	e3510078 	cmp	r1, #120	; 0x78
    c438:	0a00000b 	beq	c46c <_nl_load_domain+0x1490>
    c43c:	e3510058 	cmp	r1, #88	; 0x58
    c440:	1affffa0 	bne	c2c8 <_nl_load_domain+0x12ec>
    c444:	e51fc4a0 	ldr	ip, [pc, #-1184]	; bfac <_nl_load_domain+0xfd0>
    c448:	eafffc1c 	b	b4c0 <_nl_load_domain+0x4e4>
    c44c:	e51fc4a4 	ldr	ip, [pc, #-1188]	; bfb0 <_nl_load_domain+0xfd4>
    c450:	eafffc1a 	b	b4c0 <_nl_load_domain+0x4e4>
    c454:	e51fc4a8 	ldr	ip, [pc, #-1192]	; bfb4 <_nl_load_domain+0xfd8>
    c458:	eafffc18 	b	b4c0 <_nl_load_domain+0x4e4>
    c45c:	e51fc4ac 	ldr	ip, [pc, #-1196]	; bfb8 <_nl_load_domain+0xfdc>
    c460:	eafffc16 	b	b4c0 <_nl_load_domain+0x4e4>
    c464:	e51fc4b0 	ldr	ip, [pc, #-1200]	; bfbc <_nl_load_domain+0xfe0>
    c468:	eafffc14 	b	b4c0 <_nl_load_domain+0x4e4>
    c46c:	e51fc4c4 	ldr	ip, [pc, #-1220]	; bfb0 <_nl_load_domain+0xfd4>
    c470:	eafffc12 	b	b4c0 <_nl_load_domain+0x4e4>
    c474:	e51fc4c8 	ldr	ip, [pc, #-1224]	; bfb4 <_nl_load_domain+0xfd8>
    c478:	eafffc10 	b	b4c0 <_nl_load_domain+0x4e4>
    c47c:	e51fc4cc 	ldr	ip, [pc, #-1228]	; bfb8 <_nl_load_domain+0xfdc>
    c480:	eafffc0e 	b	b4c0 <_nl_load_domain+0x4e4>
    c484:	e51fc4d0 	ldr	ip, [pc, #-1232]	; bfbc <_nl_load_domain+0xfe0>
    c488:	eafffc0c 	b	b4c0 <_nl_load_domain+0x4e4>
    c48c:	e51fc4d4 	ldr	ip, [pc, #-1236]	; bfc0 <_nl_load_domain+0xfe4>
    c490:	eafffc0a 	b	b4c0 <_nl_load_domain+0x4e4>
    c494:	e3a0c000 	mov	ip, #0
    c498:	eafffc08 	b	b4c0 <_nl_load_domain+0x4e4>
    c49c:	e51fc4e4 	ldr	ip, [pc, #-1252]	; bfc0 <_nl_load_domain+0xfe4>
    c4a0:	eafffc06 	b	b4c0 <_nl_load_domain+0x4e4>
    c4a4:	e3a0c000 	mov	ip, #0
    c4a8:	eafffc04 	b	b4c0 <_nl_load_domain+0x4e4>
    c4ac:	e51fc504 	ldr	ip, [pc, #-1284]	; bfb0 <_nl_load_domain+0xfd4>
    c4b0:	eafffc02 	b	b4c0 <_nl_load_domain+0x4e4>
    c4b4:	e51fc508 	ldr	ip, [pc, #-1288]	; bfb4 <_nl_load_domain+0xfd8>
    c4b8:	eafffc00 	b	b4c0 <_nl_load_domain+0x4e4>
    c4bc:	e51fc50c 	ldr	ip, [pc, #-1292]	; bfb8 <_nl_load_domain+0xfdc>
    c4c0:	eafffbfe 	b	b4c0 <_nl_load_domain+0x4e4>
    c4c4:	e51fc510 	ldr	ip, [pc, #-1296]	; bfbc <_nl_load_domain+0xfe0>
    c4c8:	eafffbfc 	b	b4c0 <_nl_load_domain+0x4e4>
    c4cc:	e51fc514 	ldr	ip, [pc, #-1300]	; bfc0 <_nl_load_domain+0xfe4>
    c4d0:	eafffbfa 	b	b4c0 <_nl_load_domain+0x4e4>
    c4d4:	e3a0c000 	mov	ip, #0
    c4d8:	eafffbf8 	b	b4c0 <_nl_load_domain+0x4e4>
    c4dc:	e51fc548 	ldr	ip, [pc, #-1352]	; bf9c <_nl_load_domain+0xfc0>
    c4e0:	eafffbf6 	b	b4c0 <_nl_load_domain+0x4e4>
    c4e4:	e51fc54c 	ldr	ip, [pc, #-1356]	; bfa0 <_nl_load_domain+0xfc4>
    c4e8:	eafffbf4 	b	b4c0 <_nl_load_domain+0x4e4>
    c4ec:	e51fc550 	ldr	ip, [pc, #-1360]	; bfa4 <_nl_load_domain+0xfc8>
    c4f0:	eafffbf2 	b	b4c0 <_nl_load_domain+0x4e4>
    c4f4:	e51fc554 	ldr	ip, [pc, #-1364]	; bfa8 <_nl_load_domain+0xfcc>
    c4f8:	eafffbf0 	b	b4c0 <_nl_load_domain+0x4e4>
    c4fc:	e3a0c000 	mov	ip, #0
    c500:	eafffbee 	b	b4c0 <_nl_load_domain+0x4e4>
    c504:	e5d3c009 	ldrb	ip, [r3, #9]
    c508:	e35c0032 	cmp	ip, #50	; 0x32
    c50c:	13a0c000 	movne	ip, #0
    c510:	1afffbea 	bne	b4c0 <_nl_load_domain+0x4e4>
    c514:	e5d3300a 	ldrb	r3, [r3, #10]
    c518:	e3530000 	cmp	r3, #0
    c51c:	1a000058 	bne	c684 <_nl_load_domain+0x16a8>
    c520:	e51b30b8 	ldr	r3, [fp, #-184]	; 0xb8
    c524:	e3530000 	cmp	r3, #0
    c528:	1a000053 	bne	c67c <_nl_load_domain+0x16a0>
    c52c:	e3550000 	cmp	r5, #0
    c530:	1a00004f 	bne	c674 <_nl_load_domain+0x1698>
    c534:	e351006f 	cmp	r1, #111	; 0x6f
    c538:	0a00004b 	beq	c66c <_nl_load_domain+0x1690>
    c53c:	e3510075 	cmp	r1, #117	; 0x75
    c540:	0a000047 	beq	c664 <_nl_load_domain+0x1688>
    c544:	e3510078 	cmp	r1, #120	; 0x78
    c548:	0a000043 	beq	c65c <_nl_load_domain+0x1680>
    c54c:	e3510058 	cmp	r1, #88	; 0x58
    c550:	1affff5c 	bne	c2c8 <_nl_load_domain+0x12ec>
    c554:	e51fc5b0 	ldr	ip, [pc, #-1456]	; bfac <_nl_load_domain+0xfd0>
    c558:	eafffbd8 	b	b4c0 <_nl_load_domain+0x4e4>
    c55c:	e5d3c009 	ldrb	ip, [r3, #9]
    c560:	e35c0036 	cmp	ip, #54	; 0x36
    c564:	13a0c000 	movne	ip, #0
    c568:	1afffbd4 	bne	b4c0 <_nl_load_domain+0x4e4>
    c56c:	e5d3300a 	ldrb	r3, [r3, #10]
    c570:	e3530000 	cmp	r3, #0
    c574:	1a000036 	bne	c654 <_nl_load_domain+0x1678>
    c578:	e51bc0b8 	ldr	ip, [fp, #-184]	; 0xb8
    c57c:	e35c0000 	cmp	ip, #0
    c580:	1a000031 	bne	c64c <_nl_load_domain+0x1670>
    c584:	e3550000 	cmp	r5, #0
    c588:	1a000021 	bne	c614 <_nl_load_domain+0x1638>
    c58c:	e351006f 	cmp	r1, #111	; 0x6f
    c590:	0a00001d 	beq	c60c <_nl_load_domain+0x1630>
    c594:	e3510075 	cmp	r1, #117	; 0x75
    c598:	0a000019 	beq	c604 <_nl_load_domain+0x1628>
    c59c:	e3510078 	cmp	r1, #120	; 0x78
    c5a0:	0a000015 	beq	c5fc <_nl_load_domain+0x1620>
    c5a4:	e3510058 	cmp	r1, #88	; 0x58
    c5a8:	1affff46 	bne	c2c8 <_nl_load_domain+0x12ec>
    c5ac:	e51fc608 	ldr	ip, [pc, #-1544]	; bfac <_nl_load_domain+0xfd0>
    c5b0:	eafffbc2 	b	b4c0 <_nl_load_domain+0x4e4>
    c5b4:	e5d33009 	ldrb	r3, [r3, #9]
    c5b8:	e3530000 	cmp	r3, #0
    c5bc:	1a000020 	bne	c644 <_nl_load_domain+0x1668>
    c5c0:	e51b30b8 	ldr	r3, [fp, #-184]	; 0xb8
    c5c4:	e3530000 	cmp	r3, #0
    c5c8:	1a00001b 	bne	c63c <_nl_load_domain+0x1660>
    c5cc:	e3550000 	cmp	r5, #0
    c5d0:	1a000017 	bne	c634 <_nl_load_domain+0x1658>
    c5d4:	e351006f 	cmp	r1, #111	; 0x6f
    c5d8:	0a000013 	beq	c62c <_nl_load_domain+0x1650>
    c5dc:	e3510075 	cmp	r1, #117	; 0x75
    c5e0:	0a00000f 	beq	c624 <_nl_load_domain+0x1648>
    c5e4:	e3510078 	cmp	r1, #120	; 0x78
    c5e8:	0a00000b 	beq	c61c <_nl_load_domain+0x1640>
    c5ec:	e3510058 	cmp	r1, #88	; 0x58
    c5f0:	1affff34 	bne	c2c8 <_nl_load_domain+0x12ec>
    c5f4:	e51fc650 	ldr	ip, [pc, #-1616]	; bfac <_nl_load_domain+0xfd0>
    c5f8:	eafffbb0 	b	b4c0 <_nl_load_domain+0x4e4>
    c5fc:	e51fc654 	ldr	ip, [pc, #-1620]	; bfb0 <_nl_load_domain+0xfd4>
    c600:	eafffbae 	b	b4c0 <_nl_load_domain+0x4e4>
    c604:	e51fc658 	ldr	ip, [pc, #-1624]	; bfb4 <_nl_load_domain+0xfd8>
    c608:	eafffbac 	b	b4c0 <_nl_load_domain+0x4e4>
    c60c:	e51fc65c 	ldr	ip, [pc, #-1628]	; bfb8 <_nl_load_domain+0xfdc>
    c610:	eafffbaa 	b	b4c0 <_nl_load_domain+0x4e4>
    c614:	e51fc660 	ldr	ip, [pc, #-1632]	; bfbc <_nl_load_domain+0xfe0>
    c618:	eafffba8 	b	b4c0 <_nl_load_domain+0x4e4>
    c61c:	e51fc674 	ldr	ip, [pc, #-1652]	; bfb0 <_nl_load_domain+0xfd4>
    c620:	eafffba6 	b	b4c0 <_nl_load_domain+0x4e4>
    c624:	e51fc678 	ldr	ip, [pc, #-1656]	; bfb4 <_nl_load_domain+0xfd8>
    c628:	eafffba4 	b	b4c0 <_nl_load_domain+0x4e4>
    c62c:	e51fc67c 	ldr	ip, [pc, #-1660]	; bfb8 <_nl_load_domain+0xfdc>
    c630:	eafffba2 	b	b4c0 <_nl_load_domain+0x4e4>
    c634:	e51fc680 	ldr	ip, [pc, #-1664]	; bfbc <_nl_load_domain+0xfe0>
    c638:	eafffba0 	b	b4c0 <_nl_load_domain+0x4e4>
    c63c:	e51fc684 	ldr	ip, [pc, #-1668]	; bfc0 <_nl_load_domain+0xfe4>
    c640:	eafffb9e 	b	b4c0 <_nl_load_domain+0x4e4>
    c644:	e3a0c000 	mov	ip, #0
    c648:	eafffb9c 	b	b4c0 <_nl_load_domain+0x4e4>
    c64c:	e51fc694 	ldr	ip, [pc, #-1684]	; bfc0 <_nl_load_domain+0xfe4>
    c650:	eafffb9a 	b	b4c0 <_nl_load_domain+0x4e4>
    c654:	e3a0c000 	mov	ip, #0
    c658:	eafffb98 	b	b4c0 <_nl_load_domain+0x4e4>
    c65c:	e51fc6b4 	ldr	ip, [pc, #-1716]	; bfb0 <_nl_load_domain+0xfd4>
    c660:	eafffb96 	b	b4c0 <_nl_load_domain+0x4e4>
    c664:	e51fc6b8 	ldr	ip, [pc, #-1720]	; bfb4 <_nl_load_domain+0xfd8>
    c668:	eafffb94 	b	b4c0 <_nl_load_domain+0x4e4>
    c66c:	e51fc6bc 	ldr	ip, [pc, #-1724]	; bfb8 <_nl_load_domain+0xfdc>
    c670:	eafffb92 	b	b4c0 <_nl_load_domain+0x4e4>
    c674:	e51fc6c0 	ldr	ip, [pc, #-1728]	; bfbc <_nl_load_domain+0xfe0>
    c678:	eafffb90 	b	b4c0 <_nl_load_domain+0x4e4>
    c67c:	e51fc6c4 	ldr	ip, [pc, #-1732]	; bfc0 <_nl_load_domain+0xfe4>
    c680:	eafffb8e 	b	b4c0 <_nl_load_domain+0x4e4>
    c684:	e3a0c000 	mov	ip, #0
    c688:	eafffb8c 	b	b4c0 <_nl_load_domain+0x4e4>

0000c68c <alias_compare>:
    c68c:	e5900000 	ldr	r0, [r0]
    c690:	e5911000 	ldr	r1, [r1]
    c694:	e59f2000 	ldr	r2, [pc]	; c69c <alias_compare+0x10>
    c698:	ea004765 	b	1e434 <__strcasecmp_l>
    c69c:	00079604 	.word	0x00079604

0000c6a0 <read_alias_file>:
    c6a0:	e92d4ff0 	push	{r4, r5, r6, r7, r8, r9, sl, fp, lr}
    c6a4:	e281301c 	add	r3, r1, #28
    c6a8:	e28db020 	add	fp, sp, #32
    c6ac:	e3c33007 	bic	r3, r3, #7
    c6b0:	e24ddf73 	sub	sp, sp, #460	; 0x1cc
    c6b4:	e04dd003 	sub	sp, sp, r3
    c6b8:	e1a02001 	mov	r2, r1
    c6bc:	e1a01000 	mov	r1, r0
    c6c0:	e1a0000d 	mov	r0, sp
    c6c4:	eb00474d 	bl	1e400 <__mempcpy>
    c6c8:	e59f1428 	ldr	r1, [pc, #1064]	; caf8 <read_alias_file+0x458>
    c6cc:	e3a0200e 	mov	r2, #14
    c6d0:	eb00476e 	bl	1e490 <memcpy>
    c6d4:	e1a0000d 	mov	r0, sp
    c6d8:	e59f141c 	ldr	r1, [pc, #1052]	; cafc <read_alias_file+0x45c>
    c6dc:	eb000d3f 	bl	fbe0 <_IO_new_fopen>
    c6e0:	e2508000 	subs	r8, r0, #0
    c6e4:	0a0000e1 	beq	ca70 <read_alias_file+0x3d0>
    c6e8:	e5983000 	ldr	r3, [r8]
    c6ec:	e3832902 	orr	r2, r3, #32768	; 0x8000
    c6f0:	e2133010 	ands	r3, r3, #16
    c6f4:	e5882000 	str	r2, [r8]
    c6f8:	1a0000df 	bne	ca7c <read_alias_file+0x3dc>
    c6fc:	e59fa3fc 	ldr	sl, [pc, #1020]	; cb00 <read_alias_file+0x460>
    c700:	e50b31cc 	str	r3, [fp, #-460]	; 0x1cc
    c704:	e24b0f6d 	sub	r0, fp, #436	; 0x1b4
    c708:	e3a01e19 	mov	r1, #400	; 0x190
    c70c:	e1a02008 	mov	r2, r8
    c710:	eb000e4e 	bl	10050 <fgets_unlocked>
    c714:	e3500000 	cmp	r0, #0
    c718:	0a00007b 	beq	c90c <read_alias_file+0x26c>
    c71c:	e3a0100a 	mov	r1, #10
    c720:	e24b0f6d 	sub	r0, fp, #436	; 0x1b4
    c724:	eb0041f6 	bl	1cf04 <strchr>
    c728:	e1a09000 	mov	r9, r0
    c72c:	e59f03d0 	ldr	r0, [pc, #976]	; cb04 <read_alias_file+0x464>
    c730:	e79f2000 	ldr	r2, [pc, r0]
    c734:	ebfff3a9 	bl	95e0 <__aeabi_read_tp>
    c738:	e55bc1b4 	ldrb	ip, [fp, #-436]	; 0x1b4
    c73c:	e7901002 	ldr	r1, [r0, r2]
    c740:	e1a0208c 	lsl	r2, ip, #1
    c744:	e19120b2 	ldrh	r2, [r1, r2]
    c748:	e3120a02 	tst	r2, #8192	; 0x2000
    c74c:	0a0000bb 	beq	ca40 <read_alias_file+0x3a0>
    c750:	e24b3f6d 	sub	r3, fp, #436	; 0x1b4
    c754:	e2832001 	add	r2, r3, #1
    c758:	e1a05002 	mov	r5, r2
    c75c:	e4d2c001 	ldrb	ip, [r2], #1
    c760:	e1a0308c 	lsl	r3, ip, #1
    c764:	e19130b3 	ldrh	r3, [r1, r3]
    c768:	e3130a02 	tst	r3, #8192	; 0x2000
    c76c:	1afffff9 	bne	c758 <read_alias_file+0xb8>
    c770:	e35c0023 	cmp	ip, #35	; 0x23
    c774:	135c0000 	cmpne	ip, #0
    c778:	0a00005e 	beq	c8f8 <read_alias_file+0x258>
    c77c:	e5d52001 	ldrb	r2, [r5, #1]
    c780:	e2854001 	add	r4, r5, #1
    c784:	e3520000 	cmp	r2, #0
    c788:	0a00000b 	beq	c7bc <read_alias_file+0x11c>
    c78c:	e1a02082 	lsl	r2, r2, #1
    c790:	e19120b2 	ldrh	r2, [r1, r2]
    c794:	e3120a02 	tst	r2, #8192	; 0x2000
    c798:	0a000003 	beq	c7ac <read_alias_file+0x10c>
    c79c:	ea00006e 	b	c95c <read_alias_file+0x2bc>
    c7a0:	e19130b2 	ldrh	r3, [r1, r2]
    c7a4:	e3130a02 	tst	r3, #8192	; 0x2000
    c7a8:	1a00006b 	bne	c95c <read_alias_file+0x2bc>
    c7ac:	e5f43001 	ldrb	r3, [r4, #1]!
    c7b0:	e3530000 	cmp	r3, #0
    c7b4:	e1a02083 	lsl	r2, r3, #1
    c7b8:	1afffff8 	bne	c7a0 <read_alias_file+0x100>
    c7bc:	e3a02000 	mov	r2, #0
    c7c0:	e1a00082 	lsl	r0, r2, #1
    c7c4:	e19100b0 	ldrh	r0, [r1, r0]
    c7c8:	e3100a02 	tst	r0, #8192	; 0x2000
    c7cc:	0a000004 	beq	c7e4 <read_alias_file+0x144>
    c7d0:	e5f42001 	ldrb	r2, [r4, #1]!
    c7d4:	e1a03082 	lsl	r3, r2, #1
    c7d8:	e19130b3 	ldrh	r3, [r1, r3]
    c7dc:	e3130a02 	tst	r3, #8192	; 0x2000
    c7e0:	1afffffa 	bne	c7d0 <read_alias_file+0x130>
    c7e4:	e3520000 	cmp	r2, #0
    c7e8:	0a000042 	beq	c8f8 <read_alias_file+0x258>
    c7ec:	e5d42001 	ldrb	r2, [r4, #1]
    c7f0:	e2840001 	add	r0, r4, #1
    c7f4:	e3520000 	cmp	r2, #0
    c7f8:	0a00000b 	beq	c82c <read_alias_file+0x18c>
    c7fc:	e1a0c082 	lsl	ip, r2, #1
    c800:	e191c0bc 	ldrh	ip, [r1, ip]
    c804:	e31c0a02 	tst	ip, #8192	; 0x2000
    c808:	0a000003 	beq	c81c <read_alias_file+0x17c>
    c80c:	ea000073 	b	c9e0 <read_alias_file+0x340>
    c810:	e19130b3 	ldrh	r3, [r1, r3]
    c814:	e3130a02 	tst	r3, #8192	; 0x2000
    c818:	1a000070 	bne	c9e0 <read_alias_file+0x340>
    c81c:	e5f02001 	ldrb	r2, [r0, #1]!
    c820:	e3520000 	cmp	r2, #0
    c824:	e1a03082 	lsl	r3, r2, #1
    c828:	1afffff8 	bne	c810 <read_alias_file+0x170>
    c82c:	e59a6000 	ldr	r6, [sl]
    c830:	e59a2004 	ldr	r2, [sl, #4]
    c834:	e1560002 	cmp	r6, r2
    c838:	2a000072 	bcs	ca08 <read_alias_file+0x368>
    c83c:	e59f22c4 	ldr	r2, [pc, #708]	; cb08 <read_alias_file+0x468>
    c840:	e1a00005 	mov	r0, r5
    c844:	e50b21e0 	str	r2, [fp, #-480]	; 0x1e0
    c848:	eb004210 	bl	1d090 <strlen>
    c84c:	e2807001 	add	r7, r0, #1
    c850:	e1a00004 	mov	r0, r4
    c854:	eb00420d 	bl	1d090 <strlen>
    c858:	e59a3008 	ldr	r3, [sl, #8]
    c85c:	e2800001 	add	r0, r0, #1
    c860:	e087c003 	add	ip, r7, r3
    c864:	e59a100c 	ldr	r1, [sl, #12]
    c868:	e50bc1c4 	str	ip, [fp, #-452]	; 0x1c4
    c86c:	e08cc000 	add	ip, ip, r0
    c870:	e15c0001 	cmp	ip, r1
    c874:	e50b01b8 	str	r0, [fp, #-440]	; 0x1b8
    c878:	e50bc1c8 	str	ip, [fp, #-456]	; 0x1c8
    c87c:	e51b21e0 	ldr	r2, [fp, #-480]	; 0x1e0
    c880:	8a00003a 	bhi	c970 <read_alias_file+0x2d0>
    c884:	e8921004 	ldm	r2, {r2, ip}
    c888:	e1a00186 	lsl	r0, r6, #3
    c88c:	e50b21bc 	str	r2, [fp, #-444]	; 0x1bc
    c890:	e50b01c0 	str	r0, [fp, #-448]	; 0x1c0
    c894:	e08c0003 	add	r0, ip, r3
    c898:	e1a02007 	mov	r2, r7
    c89c:	e1a01005 	mov	r1, r5
    c8a0:	e50bc1dc 	str	ip, [fp, #-476]	; 0x1dc
    c8a4:	eb0046f9 	bl	1e490 <memcpy>
    c8a8:	e51b21bc 	ldr	r2, [fp, #-444]	; 0x1bc
    c8ac:	e51b31c0 	ldr	r3, [fp, #-448]	; 0x1c0
    c8b0:	e51bc1dc 	ldr	ip, [fp, #-476]	; 0x1dc
    c8b4:	e7820003 	str	r0, [r2, r3]
    c8b8:	e51b31c4 	ldr	r3, [fp, #-452]	; 0x1c4
    c8bc:	e1a01004 	mov	r1, r4
    c8c0:	e08c0003 	add	r0, ip, r3
    c8c4:	e51b21b8 	ldr	r2, [fp, #-440]	; 0x1b8
    c8c8:	eb0046f0 	bl	1e490 <memcpy>
    c8cc:	e51bc1bc 	ldr	ip, [fp, #-444]	; 0x1bc
    c8d0:	e51b31c0 	ldr	r3, [fp, #-448]	; 0x1c0
    c8d4:	e2866001 	add	r6, r6, #1
    c8d8:	e08c7003 	add	r7, ip, r3
    c8dc:	e5870004 	str	r0, [r7, #4]
    c8e0:	e51b01cc 	ldr	r0, [fp, #-460]	; 0x1cc
    c8e4:	e51bc1c8 	ldr	ip, [fp, #-456]	; 0x1c8
    c8e8:	e2800001 	add	r0, r0, #1
    c8ec:	e58a6000 	str	r6, [sl]
    c8f0:	e58ac008 	str	ip, [sl, #8]
    c8f4:	e50b01cc 	str	r0, [fp, #-460]	; 0x1cc
    c8f8:	e3590000 	cmp	r9, #0
    c8fc:	0a00000f 	beq	c940 <read_alias_file+0x2a0>
    c900:	e5983000 	ldr	r3, [r8]
    c904:	e3130010 	tst	r3, #16
    c908:	0affff7d 	beq	c704 <read_alias_file+0x64>
    c90c:	e1a00008 	mov	r0, r8
    c910:	eb000b2a 	bl	f5c0 <_IO_new_fclose>
    c914:	e51b11cc 	ldr	r1, [fp, #-460]	; 0x1cc
    c918:	e3510000 	cmp	r1, #0
    c91c:	051b01cc 	ldreq	r0, [fp, #-460]	; 0x1cc
    c920:	1a000048 	bne	ca48 <read_alias_file+0x3a8>
    c924:	e24bd020 	sub	sp, fp, #32
    c928:	e8bd8ff0 	pop	{r4, r5, r6, r7, r8, r9, sl, fp, pc}
    c92c:	e24b0f6d 	sub	r0, fp, #436	; 0x1b4
    c930:	e3a0100a 	mov	r1, #10
    c934:	eb004172 	bl	1cf04 <strchr>
    c938:	e3500000 	cmp	r0, #0
    c93c:	1affffef 	bne	c900 <read_alias_file+0x260>
    c940:	e24b0f6d 	sub	r0, fp, #436	; 0x1b4
    c944:	e3a01e19 	mov	r1, #400	; 0x190
    c948:	e1a02008 	mov	r2, r8
    c94c:	eb000dbf 	bl	10050 <fgets_unlocked>
    c950:	e3500000 	cmp	r0, #0
    c954:	1afffff4 	bne	c92c <read_alias_file+0x28c>
    c958:	eaffffe8 	b	c900 <read_alias_file+0x260>
    c95c:	e3a02000 	mov	r2, #0
    c960:	e2844001 	add	r4, r4, #1
    c964:	e5442001 	strb	r2, [r4, #-1]
    c968:	e5d42000 	ldrb	r2, [r4]
    c96c:	eaffff93 	b	c7c0 <read_alias_file+0x120>
    c970:	e51bc1b8 	ldr	ip, [fp, #-440]	; 0x1b8
    c974:	e08c0007 	add	r0, ip, r7
    c978:	e592c004 	ldr	ip, [r2, #4]
    c97c:	e3500b01 	cmp	r0, #1024	; 0x400
    c980:	20811000 	addcs	r1, r1, r0
    c984:	32811b01 	addcc	r1, r1, #1024	; 0x400
    c988:	e1a0000c 	mov	r0, ip
    c98c:	e50b21e0 	str	r2, [fp, #-480]	; 0x1e0
    c990:	e50b31d8 	str	r3, [fp, #-472]	; 0x1d8
    c994:	e50bc1dc 	str	ip, [fp, #-476]	; 0x1dc
    c998:	e50b11d0 	str	r1, [fp, #-464]	; 0x1d0
    c99c:	eb003aa9 	bl	1b448 <__libc_realloc>
    c9a0:	e3500000 	cmp	r0, #0
    c9a4:	e51b21e0 	ldr	r2, [fp, #-480]	; 0x1e0
    c9a8:	e51b31d8 	ldr	r3, [fp, #-472]	; 0x1d8
    c9ac:	e51bc1dc 	ldr	ip, [fp, #-476]	; 0x1dc
    c9b0:	0affffd5 	beq	c90c <read_alias_file+0x26c>
    c9b4:	e15c0000 	cmp	ip, r0
    c9b8:	1a000032 	bne	ca88 <read_alias_file+0x3e8>
    c9bc:	e592c000 	ldr	ip, [r2]
    c9c0:	e50bc1bc 	str	ip, [fp, #-444]	; 0x1bc
    c9c4:	e1a0c186 	lsl	ip, r6, #3
    c9c8:	e50bc1c0 	str	ip, [fp, #-448]	; 0x1c0
    c9cc:	e5820004 	str	r0, [r2, #4]
    c9d0:	e51b21d0 	ldr	r2, [fp, #-464]	; 0x1d0
    c9d4:	e1a0c000 	mov	ip, r0
    c9d8:	e58a200c 	str	r2, [sl, #12]
    c9dc:	eaffffac 	b	c894 <read_alias_file+0x1f4>
    c9e0:	e352000a 	cmp	r2, #10
    c9e4:	03a0c000 	moveq	ip, #0
    c9e8:	13a01000 	movne	r1, #0
    c9ec:	05c02001 	strbeq	r2, [r0, #1]
    c9f0:	e59a6000 	ldr	r6, [sl]
    c9f4:	e59a2004 	ldr	r2, [sl, #4]
    c9f8:	05c0c000 	strbeq	ip, [r0]
    c9fc:	15c01000 	strbne	r1, [r0]
    ca00:	e1560002 	cmp	r6, r2
    ca04:	3affff8c 	bcc	c83c <read_alias_file+0x19c>
    ca08:	e3520000 	cmp	r2, #0
    ca0c:	11a07082 	lslne	r7, r2, #1
    ca10:	11a01202 	lslne	r1, r2, #4
    ca14:	e59f20ec 	ldr	r2, [pc, #236]	; cb08 <read_alias_file+0x468>
    ca18:	03a01e32 	moveq	r1, #800	; 0x320
    ca1c:	e5920000 	ldr	r0, [r2]
    ca20:	03a07064 	moveq	r7, #100	; 0x64
    ca24:	eb003a87 	bl	1b448 <__libc_realloc>
    ca28:	e3500000 	cmp	r0, #0
    ca2c:	e59f20d4 	ldr	r2, [pc, #212]	; cb08 <read_alias_file+0x468>
    ca30:	0affffb5 	beq	c90c <read_alias_file+0x26c>
    ca34:	e5820000 	str	r0, [r2]
    ca38:	e58a7004 	str	r7, [sl, #4]
    ca3c:	eaffff7f 	b	c840 <read_alias_file+0x1a0>
    ca40:	e24b5f6d 	sub	r5, fp, #436	; 0x1b4
    ca44:	eaffff49 	b	c770 <read_alias_file+0xd0>
    ca48:	e59f20b8 	ldr	r2, [pc, #184]	; cb08 <read_alias_file+0x468>
    ca4c:	e59f30ac 	ldr	r3, [pc, #172]	; cb00 <read_alias_file+0x460>
    ca50:	e5920000 	ldr	r0, [r2]
    ca54:	e5931000 	ldr	r1, [r3]
    ca58:	e3a02008 	mov	r2, #8
    ca5c:	e59f30a8 	ldr	r3, [pc, #168]	; cb0c <read_alias_file+0x46c>
    ca60:	eb000788 	bl	e888 <qsort>
    ca64:	e51b01cc 	ldr	r0, [fp, #-460]	; 0x1cc
    ca68:	e24bd020 	sub	sp, fp, #32
    ca6c:	e8bd8ff0 	pop	{r4, r5, r6, r7, r8, r9, sl, fp, pc}
    ca70:	e1a00008 	mov	r0, r8
    ca74:	e24bd020 	sub	sp, fp, #32
    ca78:	e8bd8ff0 	pop	{r4, r5, r6, r7, r8, r9, sl, fp, pc}
    ca7c:	eb000acf 	bl	f5c0 <_IO_new_fclose>
    ca80:	e3a00000 	mov	r0, #0
    ca84:	eaffffa6 	b	c924 <read_alias_file+0x284>
    ca88:	e3560000 	cmp	r6, #0
    ca8c:	0affffca 	beq	c9bc <read_alias_file+0x31c>
    ca90:	e3a0e000 	mov	lr, #0
    ca94:	e59f106c 	ldr	r1, [pc, #108]	; cb08 <read_alias_file+0x468>
    ca98:	e06cc000 	rsb	ip, ip, r0
    ca9c:	e5911000 	ldr	r1, [r1]
    caa0:	e50bc1d4 	str	ip, [fp, #-468]	; 0x1d4
    caa4:	e1a0c186 	lsl	ip, r6, #3
    caa8:	e50b11bc 	str	r1, [fp, #-444]	; 0x1bc
    caac:	e50bc1c0 	str	ip, [fp, #-448]	; 0x1c0
    cab0:	e50b31e4 	str	r3, [fp, #-484]	; 0x1e4
    cab4:	e50b21ec 	str	r2, [fp, #-492]	; 0x1ec
    cab8:	e51b11bc 	ldr	r1, [fp, #-444]	; 0x1bc
    cabc:	e51b31d4 	ldr	r3, [fp, #-468]	; 0x1d4
    cac0:	e791200e 	ldr	r2, [r1, lr]
    cac4:	e082c003 	add	ip, r2, r3
    cac8:	e7a1c00e 	str	ip, [r1, lr]!
    cacc:	e591c004 	ldr	ip, [r1, #4]
    cad0:	e51b31c0 	ldr	r3, [fp, #-448]	; 0x1c0
    cad4:	e51b21d4 	ldr	r2, [fp, #-468]	; 0x1d4
    cad8:	e28ee008 	add	lr, lr, #8
    cadc:	e08cc002 	add	ip, ip, r2
    cae0:	e15e0003 	cmp	lr, r3
    cae4:	e581c004 	str	ip, [r1, #4]
    cae8:	1afffff2 	bne	cab8 <read_alias_file+0x418>
    caec:	e51b31e4 	ldr	r3, [fp, #-484]	; 0x1e4
    caf0:	e51b21ec 	ldr	r2, [fp, #-492]	; 0x1ec
    caf4:	eaffffb4 	b	c9cc <read_alias_file+0x32c>
    caf8:	00069df4 	.word	0x00069df4
    cafc:	00069df0 	.word	0x00069df0
    cb00:	0008a190 	.word	0x0008a190
    cb04:	0007c918 	.word	0x0007c918
    cb08:	0008b004 	.word	0x0008b004
    cb0c:	0000c68c 	.word	0x0000c68c

0000cb10 <_nl_expand_alias>:
    cb10:	e92d4ff0 	push	{r4, r5, r6, r7, r8, r9, sl, fp, lr}
    cb14:	e3a01001 	mov	r1, #1
    cb18:	e24dd00c 	sub	sp, sp, #12
    cb1c:	e1a06000 	mov	r6, r0
    cb20:	e59f21b8 	ldr	r2, [pc, #440]	; cce0 <_nl_expand_alias+0x1d0>
    cb24:	e3a04000 	mov	r4, #0
    cb28:	e5923000 	ldr	r3, [r2]
    cb2c:	e1530004 	cmp	r3, r4
    cb30:	1a000005 	bne	cb4c <_nl_expand_alias+0x3c>
    cb34:	e1a00004 	mov	r0, r4
    cb38:	e3e03a0f 	mvn	r3, #61440	; 0xf000
    cb3c:	e1a0e00f 	mov	lr, pc
    cb40:	e243f03f 	sub	pc, r3, #63	; 0x3f
    cb44:	3afffff7 	bcc	cb28 <_nl_expand_alias+0x18>
    cb48:	e1a03004 	mov	r3, r4
    cb4c:	e3530000 	cmp	r3, #0
    cb50:	1a000056 	bne	ccb0 <_nl_expand_alias+0x1a0>
    cb54:	e59f5188 	ldr	r5, [pc, #392]	; cce4 <_nl_expand_alias+0x1d4>
    cb58:	e59f4188 	ldr	r4, [pc, #392]	; cce8 <_nl_expand_alias+0x1d8>
    cb5c:	e595a000 	ldr	sl, [r5]
    cb60:	e58d6000 	str	r6, [sp]
    cb64:	e35a0000 	cmp	sl, #0
    cb68:	0a000012 	beq	cbb8 <_nl_expand_alias+0xa8>
    cb6c:	e59f3178 	ldr	r3, [pc, #376]	; ccec <_nl_expand_alias+0x1dc>
    cb70:	e3a09000 	mov	r9, #0
    cb74:	e593b000 	ldr	fp, [r3]
    cb78:	ea000003 	b	cb8c <_nl_expand_alias+0x7c>
    cb7c:	0a000047 	beq	cca0 <_nl_expand_alias+0x190>
    cb80:	e2889001 	add	r9, r8, #1
    cb84:	e159000a 	cmp	r9, sl
    cb88:	2a00000a 	bcs	cbb8 <_nl_expand_alias+0xa8>
    cb8c:	e08a8009 	add	r8, sl, r9
    cb90:	e1a080a8 	lsr	r8, r8, #1
    cb94:	e08b7188 	add	r7, fp, r8, lsl #3
    cb98:	e1a01007 	mov	r1, r7
    cb9c:	e1a0000d 	mov	r0, sp
    cba0:	ebfffeb9 	bl	c68c <alias_compare>
    cba4:	e3500000 	cmp	r0, #0
    cba8:	aafffff3 	bge	cb7c <_nl_expand_alias+0x6c>
    cbac:	e1a0a008 	mov	sl, r8
    cbb0:	e159000a 	cmp	r9, sl
    cbb4:	3afffff4 	bcc	cb8c <_nl_expand_alias+0x7c>
    cbb8:	e59f8128 	ldr	r8, [pc, #296]	; cce8 <_nl_expand_alias+0x1d8>
    cbbc:	e5943000 	ldr	r3, [r4]
    cbc0:	e5d32000 	ldrb	r2, [r3]
    cbc4:	e3520000 	cmp	r2, #0
    cbc8:	0a000019 	beq	cc34 <_nl_expand_alias+0x124>
    cbcc:	e352003a 	cmp	r2, #58	; 0x3a
    cbd0:	05d32001 	ldrbeq	r2, [r3, #1]
    cbd4:	02833001 	addeq	r3, r3, #1
    cbd8:	0afffffb 	beq	cbcc <_nl_expand_alias+0xbc>
    cbdc:	e3520000 	cmp	r2, #0
    cbe0:	e1a00003 	mov	r0, r3
    cbe4:	0a00000d 	beq	cc20 <_nl_expand_alias+0x110>
    cbe8:	e1a02003 	mov	r2, r3
    cbec:	e5d23001 	ldrb	r3, [r2, #1]
    cbf0:	e2822001 	add	r2, r2, #1
    cbf4:	e353003a 	cmp	r3, #58	; 0x3a
    cbf8:	13530000 	cmpne	r3, #0
    cbfc:	1afffffa 	bne	cbec <_nl_expand_alias+0xdc>
    cc00:	e1520000 	cmp	r2, r0
    cc04:	e1a01002 	mov	r1, r2
    cc08:	8a00001e 	bhi	cc88 <_nl_expand_alias+0x178>
    cc0c:	e5d12000 	ldrb	r2, [r1]
    cc10:	e3520000 	cmp	r2, #0
    cc14:	0a000005 	beq	cc30 <_nl_expand_alias+0x120>
    cc18:	e1a03001 	mov	r3, r1
    cc1c:	eaffffea 	b	cbcc <_nl_expand_alias+0xbc>
    cc20:	e1a01003 	mov	r1, r3
    cc24:	e5d12000 	ldrb	r2, [r1]
    cc28:	e3520000 	cmp	r2, #0
    cc2c:	1afffff9 	bne	cc18 <_nl_expand_alias+0x108>
    cc30:	e5881000 	str	r1, [r8]
    cc34:	e3a06000 	mov	r6, #0
    cc38:	e5957010 	ldr	r7, [r5, #16]
    cc3c:	e3a01000 	mov	r1, #0
    cc40:	e1a04007 	mov	r4, r7
    cc44:	e59f2094 	ldr	r2, [pc, #148]	; cce0 <_nl_expand_alias+0x1d0>
    cc48:	e5923000 	ldr	r3, [r2]
    cc4c:	e1530004 	cmp	r3, r4
    cc50:	1a000005 	bne	cc6c <_nl_expand_alias+0x15c>
    cc54:	e1a00004 	mov	r0, r4
    cc58:	e3e03a0f 	mvn	r3, #61440	; 0xf000
    cc5c:	e1a0e00f 	mov	lr, pc
    cc60:	e243f03f 	sub	pc, r3, #63	; 0x3f
    cc64:	3afffff7 	bcc	cc48 <_nl_expand_alias+0x138>
    cc68:	e1a03004 	mov	r3, r4
    cc6c:	e1570003 	cmp	r7, r3
    cc70:	1afffff0 	bne	cc38 <_nl_expand_alias+0x128>
    cc74:	e3570001 	cmp	r7, #1
    cc78:	ca00000f 	bgt	ccbc <_nl_expand_alias+0x1ac>
    cc7c:	e1a00006 	mov	r0, r6
    cc80:	e28dd00c 	add	sp, sp, #12
    cc84:	e8bd8ff0 	pop	{r4, r5, r6, r7, r8, r9, sl, fp, pc}
    cc88:	e0601002 	rsb	r1, r0, r2
    cc8c:	e5842000 	str	r2, [r4]
    cc90:	ebfffe82 	bl	c6a0 <read_alias_file>
    cc94:	e3500000 	cmp	r0, #0
    cc98:	0affffc7 	beq	cbbc <_nl_expand_alias+0xac>
    cc9c:	eaffffae 	b	cb5c <_nl_expand_alias+0x4c>
    cca0:	e3570000 	cmp	r7, #0
    cca4:	0affffc3 	beq	cbb8 <_nl_expand_alias+0xa8>
    cca8:	e5976004 	ldr	r6, [r7, #4]
    ccac:	eaffffe1 	b	cc38 <_nl_expand_alias+0x128>
    ccb0:	e1a00002 	mov	r0, r2
    ccb4:	eb00521e 	bl	21534 <__lll_lock_wait_private>
    ccb8:	eaffffa5 	b	cb54 <_nl_expand_alias+0x44>
    ccbc:	e1a00002 	mov	r0, r2
    ccc0:	e3a01081 	mov	r1, #129	; 0x81
    ccc4:	e3a02001 	mov	r2, #1
    ccc8:	e3a03000 	mov	r3, #0
    cccc:	e3a070f0 	mov	r7, #240	; 0xf0
    ccd0:	ef000000 	svc	0x00000000
    ccd4:	e1a00006 	mov	r0, r6
    ccd8:	e28dd00c 	add	sp, sp, #12
    ccdc:	e8bd8ff0 	pop	{r4, r5, r6, r7, r8, r9, sl, fp, pc}
    cce0:	0008a1a0 	.word	0x0008a1a0
    cce4:	0008a190 	.word	0x0008a190
    cce8:	00089080 	.word	0x00089080
    ccec:	0008b004 	.word	0x0008b004

0000ccf0 <_nl_make_l10nflist>:
    ccf0:	e92d4ff0 	push	{r4, r5, r6, r7, r8, r9, sl, fp, lr}
    ccf4:	e24dd03c 	sub	sp, sp, #60	; 0x3c
    ccf8:	e1a08003 	mov	r8, r3
    ccfc:	e1a0a000 	mov	sl, r0
    cd00:	e59d0060 	ldr	r0, [sp, #96]	; 0x60
    cd04:	e58d1030 	str	r1, [sp, #48]	; 0x30
    cd08:	e58d2028 	str	r2, [sp, #40]	; 0x28
    cd0c:	eb0040df 	bl	1d090 <strlen>
    cd10:	e218b004 	ands	fp, r8, #4
    cd14:	e1a05000 	mov	r5, r0
    cd18:	e59d9074 	ldr	r9, [sp, #116]	; 0x74
    cd1c:	01a0600b 	moveq	r6, fp
    cd20:	0a000002 	beq	cd30 <_nl_make_l10nflist+0x40>
    cd24:	e59d0064 	ldr	r0, [sp, #100]	; 0x64
    cd28:	eb0040d8 	bl	1d090 <strlen>
    cd2c:	e2806001 	add	r6, r0, #1
    cd30:	e2183002 	ands	r3, r8, #2
    cd34:	e58d3024 	str	r3, [sp, #36]	; 0x24
    cd38:	0a0000eb 	beq	d0ec <_nl_make_l10nflist+0x3fc>
    cd3c:	e59d0068 	ldr	r0, [sp, #104]	; 0x68
    cd40:	eb0040d2 	bl	1d090 <strlen>
    cd44:	e2183001 	ands	r3, r8, #1
    cd48:	e2807001 	add	r7, r0, #1
    cd4c:	e58d302c 	str	r3, [sp, #44]	; 0x2c
    cd50:	0a0000e9 	beq	d0fc <_nl_make_l10nflist+0x40c>
    cd54:	e59d006c 	ldr	r0, [sp, #108]	; 0x6c
    cd58:	eb0040cc 	bl	1d090 <strlen>
    cd5c:	e2183008 	ands	r3, r8, #8
    cd60:	e2804001 	add	r4, r0, #1
    cd64:	e58d3034 	str	r3, [sp, #52]	; 0x34
    cd68:	0a0000e7 	beq	d10c <_nl_make_l10nflist+0x41c>
    cd6c:	e59d0070 	ldr	r0, [sp, #112]	; 0x70
    cd70:	eb0040c6 	bl	1d090 <strlen>
    cd74:	e2803001 	add	r3, r0, #1
    cd78:	e1a00009 	mov	r0, r9
    cd7c:	e58d3020 	str	r3, [sp, #32]
    cd80:	eb0040c2 	bl	1d090 <strlen>
    cd84:	e59d1028 	ldr	r1, [sp, #40]	; 0x28
    cd88:	e59d3020 	ldr	r3, [sp, #32]
    cd8c:	e2812002 	add	r2, r1, #2
    cd90:	e0825005 	add	r5, r2, r5
    cd94:	e0856006 	add	r6, r5, r6
    cd98:	e0867007 	add	r7, r6, r7
    cd9c:	e0874004 	add	r4, r7, r4
    cda0:	e0843003 	add	r3, r4, r3
    cda4:	e0830000 	add	r0, r3, r0
    cda8:	eb003790 	bl	1abf0 <__libc_malloc>
    cdac:	e2504000 	subs	r4, r0, #0
    cdb0:	0a0000f7 	beq	d194 <_nl_make_l10nflist+0x4a4>
    cdb4:	e59d1030 	ldr	r1, [sp, #48]	; 0x30
    cdb8:	e59d2028 	ldr	r2, [sp, #40]	; 0x28
    cdbc:	eb0045b3 	bl	1e490 <memcpy>
    cdc0:	e1a00004 	mov	r0, r4
    cdc4:	e59d1028 	ldr	r1, [sp, #40]	; 0x28
    cdc8:	e3a0203a 	mov	r2, #58	; 0x3a
    cdcc:	eb0046e3 	bl	1e960 <__argz_stringify>
    cdd0:	e3a0202f 	mov	r2, #47	; 0x2f
    cdd4:	e59d1028 	ldr	r1, [sp, #40]	; 0x28
    cdd8:	e2413001 	sub	r3, r1, #1
    cddc:	e0840001 	add	r0, r4, r1
    cde0:	e7c42003 	strb	r2, [r4, r3]
    cde4:	e59d1060 	ldr	r1, [sp, #96]	; 0x60
    cde8:	eb004589 	bl	1e414 <__stpcpy>
    cdec:	e35b0000 	cmp	fp, #0
    cdf0:	1a0000df 	bne	d174 <_nl_make_l10nflist+0x484>
    cdf4:	e59d3024 	ldr	r3, [sp, #36]	; 0x24
    cdf8:	e3530000 	cmp	r3, #0
    cdfc:	1a0000d6 	bne	d15c <_nl_make_l10nflist+0x46c>
    ce00:	e59d302c 	ldr	r3, [sp, #44]	; 0x2c
    ce04:	e3530000 	cmp	r3, #0
    ce08:	1a0000cd 	bne	d144 <_nl_make_l10nflist+0x454>
    ce0c:	e59d3034 	ldr	r3, [sp, #52]	; 0x34
    ce10:	e3530000 	cmp	r3, #0
    ce14:	1a0000c4 	bne	d12c <_nl_make_l10nflist+0x43c>
    ce18:	e3a0302f 	mov	r3, #47	; 0x2f
    ce1c:	e1a01009 	mov	r1, r9
    ce20:	e4c03001 	strb	r3, [r0], #1
    ce24:	eb004087 	bl	1d048 <strcpy>
    ce28:	e59a6000 	ldr	r6, [sl]
    ce2c:	e3560000 	cmp	r6, #0
    ce30:	0a0000d9 	beq	d19c <_nl_make_l10nflist+0x4ac>
    ce34:	e3a05000 	mov	r5, #0
    ce38:	e5960000 	ldr	r0, [r6]
    ce3c:	e3500000 	cmp	r0, #0
    ce40:	0a000005 	beq	ce5c <_nl_make_l10nflist+0x16c>
    ce44:	e1a01004 	mov	r1, r4
    ce48:	eb004074 	bl	1d020 <strcmp>
    ce4c:	e3500000 	cmp	r0, #0
    ce50:	0a0000b0 	beq	d118 <_nl_make_l10nflist+0x428>
    ce54:	ba000003 	blt	ce68 <_nl_make_l10nflist+0x178>
    ce58:	e1a05006 	mov	r5, r6
    ce5c:	e596600c 	ldr	r6, [r6, #12]
    ce60:	e3560000 	cmp	r6, #0
    ce64:	1afffff3 	bne	ce38 <_nl_make_l10nflist+0x148>
    ce68:	e59d1078 	ldr	r1, [sp, #120]	; 0x78
    ce6c:	e3510000 	cmp	r1, #0
    ce70:	0a0000a7 	beq	d114 <_nl_make_l10nflist+0x424>
    ce74:	e59d1028 	ldr	r1, [sp, #40]	; 0x28
    ce78:	e59d0030 	ldr	r0, [sp, #48]	; 0x30
    ce7c:	eb0046a6 	bl	1e91c <__argz_count>
    ce80:	e59f332c 	ldr	r3, [pc, #812]	; d1b4 <_nl_make_l10nflist+0x4c4>
    ce84:	e3c81c55 	bic	r1, r8, #21760	; 0x5500
    ce88:	e0033008 	and	r3, r3, r8
    ce8c:	e3c11055 	bic	r1, r1, #85	; 0x55
    ce90:	e08310c1 	add	r1, r3, r1, asr #1
    ce94:	e59f331c 	ldr	r3, [pc, #796]	; d1b8 <_nl_make_l10nflist+0x4c8>
    ce98:	e3c12c33 	bic	r2, r1, #13056	; 0x3300
    ce9c:	e0033001 	and	r3, r3, r1
    cea0:	e3c22033 	bic	r2, r2, #51	; 0x33
    cea4:	e0832142 	add	r2, r3, r2, asr #2
    cea8:	e59f330c 	ldr	r3, [pc, #780]	; d1bc <_nl_make_l10nflist+0x4cc>
    ceac:	e0822242 	add	r2, r2, r2, asr #4
    ceb0:	e0033002 	and	r3, r3, r2
    ceb4:	e0833423 	add	r3, r3, r3, lsr #8
    ceb8:	e20330ff 	and	r3, r3, #255	; 0xff
    cebc:	e1a00080 	lsl	r0, r0, #1
    cec0:	e1a00310 	lsl	r0, r0, r3
    cec4:	e2800005 	add	r0, r0, #5
    cec8:	e1a00100 	lsl	r0, r0, #2
    cecc:	eb003747 	bl	1abf0 <__libc_malloc>
    ced0:	e3500000 	cmp	r0, #0
    ced4:	e58d002c 	str	r0, [sp, #44]	; 0x2c
    ced8:	0a0000b1 	beq	d1a4 <_nl_make_l10nflist+0x4b4>
    cedc:	e59d202c 	ldr	r2, [sp, #44]	; 0x2c
    cee0:	e59d1028 	ldr	r1, [sp, #40]	; 0x28
    cee4:	e5824000 	str	r4, [r2]
    cee8:	e59d0030 	ldr	r0, [sp, #48]	; 0x30
    ceec:	eb00468a 	bl	1e91c <__argz_count>
    cef0:	e3500001 	cmp	r0, #1
    cef4:	02082003 	andeq	r2, r8, #3
    cef8:	02422003 	subeq	r2, r2, #3
    cefc:	016f2f12 	clzeq	r2, r2
    cf00:	e3a03000 	mov	r3, #0
    cf04:	13a02001 	movne	r2, #1
    cf08:	e59d102c 	ldr	r1, [sp, #44]	; 0x2c
    cf0c:	01a022a2 	lsreq	r2, r2, #5
    cf10:	e981000c 	stmib	r1, {r2, r3}
    cf14:	e1550003 	cmp	r5, r3
    cf18:	059a3000 	ldreq	r3, [sl]
    cf1c:	1595300c 	ldrne	r3, [r5, #12]
    cf20:	159d202c 	ldrne	r2, [sp, #44]	; 0x2c
    cf24:	0581300c 	streq	r3, [r1, #12]
    cf28:	1582300c 	strne	r3, [r2, #12]
    cf2c:	058a1000 	streq	r1, [sl]
    cf30:	1585200c 	strne	r2, [r5, #12]
    cf34:	e59d0030 	ldr	r0, [sp, #48]	; 0x30
    cf38:	e59d1028 	ldr	r1, [sp, #40]	; 0x28
    cf3c:	eb004676 	bl	1e91c <__argz_count>
    cf40:	e3500001 	cmp	r0, #1
    cf44:	11a06008 	movne	r6, r8
    cf48:	02486001 	subeq	r6, r8, #1
    cf4c:	e3560000 	cmp	r6, #0
    cf50:	ba00008d 	blt	d18c <_nl_make_l10nflist+0x49c>
    cf54:	e1e03008 	mvn	r3, r8
    cf58:	e59d1030 	ldr	r1, [sp, #48]	; 0x30
    cf5c:	e59d2028 	ldr	r2, [sp, #40]	; 0x28
    cf60:	e58d3024 	str	r3, [sp, #36]	; 0x24
    cf64:	e3a04000 	mov	r4, #0
    cf68:	e0817002 	add	r7, r1, r2
    cf6c:	e58d8034 	str	r8, [sp, #52]	; 0x34
    cf70:	e59db070 	ldr	fp, [sp, #112]	; 0x70
    cf74:	ea000001 	b	cf80 <_nl_make_l10nflist+0x290>
    cf78:	e2566001 	subs	r6, r6, #1
    cf7c:	3a00002e 	bcc	d03c <_nl_make_l10nflist+0x34c>
    cf80:	e59d3024 	ldr	r3, [sp, #36]	; 0x24
    cf84:	e016c003 	ands	ip, r6, r3
    cf88:	1afffffa 	bne	cf78 <_nl_make_l10nflist+0x288>
    cf8c:	e1a0800c 	mov	r8, ip
    cf90:	e59d102c 	ldr	r1, [sp, #44]	; 0x2c
    cf94:	e2845003 	add	r5, r4, #3
    cf98:	e3580000 	cmp	r8, #0
    cf9c:	e0815105 	add	r5, r1, r5, lsl #2
    cfa0:	0a000020 	beq	d028 <_nl_make_l10nflist+0x338>
    cfa4:	e1580007 	cmp	r8, r7
    cfa8:	2afffff2 	bcs	cf78 <_nl_make_l10nflist+0x288>
    cfac:	e1a00008 	mov	r0, r8
    cfb0:	e3a01000 	mov	r1, #0
    cfb4:	eb0045dd 	bl	1e730 <__rawmemchr>
    cfb8:	e2808001 	add	r8, r0, #1
    cfbc:	e1570008 	cmp	r7, r8
    cfc0:	9affffec 	bls	cf78 <_nl_make_l10nflist+0x288>
    cfc4:	e3580000 	cmp	r8, #0
    cfc8:	0affffea 	beq	cf78 <_nl_make_l10nflist+0x288>
    cfcc:	e1a00008 	mov	r0, r8
    cfd0:	eb00402e 	bl	1d090 <strlen>
    cfd4:	e59d3060 	ldr	r3, [sp, #96]	; 0x60
    cfd8:	e59d1064 	ldr	r1, [sp, #100]	; 0x64
    cfdc:	e58d3000 	str	r3, [sp]
    cfe0:	e59d3068 	ldr	r3, [sp, #104]	; 0x68
    cfe4:	e58d1004 	str	r1, [sp, #4]
    cfe8:	e58d3008 	str	r3, [sp, #8]
    cfec:	e3a03001 	mov	r3, #1
    cff0:	e59d106c 	ldr	r1, [sp, #108]	; 0x6c
    cff4:	e2802001 	add	r2, r0, #1
    cff8:	e58d100c 	str	r1, [sp, #12]
    cffc:	e58d3018 	str	r3, [sp, #24]
    d000:	e58db010 	str	fp, [sp, #16]
    d004:	e58d9014 	str	r9, [sp, #20]
    d008:	e1a0000a 	mov	r0, sl
    d00c:	e1a01008 	mov	r1, r8
    d010:	e1a03006 	mov	r3, r6
    d014:	ebffff35 	bl	ccf0 <_nl_make_l10nflist>
    d018:	e3580000 	cmp	r8, #0
    d01c:	e2844001 	add	r4, r4, #1
    d020:	e5a50004 	str	r0, [r5, #4]!
    d024:	1affffde 	bne	cfa4 <_nl_make_l10nflist+0x2b4>
    d028:	e59d1028 	ldr	r1, [sp, #40]	; 0x28
    d02c:	e3510000 	cmp	r1, #0
    d030:	0affffd0 	beq	cf78 <_nl_make_l10nflist+0x288>
    d034:	e59d8030 	ldr	r8, [sp, #48]	; 0x30
    d038:	eaffffe1 	b	cfc4 <_nl_make_l10nflist+0x2d4>
    d03c:	e59d8034 	ldr	r8, [sp, #52]	; 0x34
    d040:	e3580000 	cmp	r8, #0
    d044:	ba000021 	blt	d0d0 <_nl_make_l10nflist+0x3e0>
    d048:	e1a07004 	mov	r7, r4
    d04c:	e1e06008 	mvn	r6, r8
    d050:	e1a04009 	mov	r4, r9
    d054:	e3a05001 	mov	r5, #1
    d058:	e59db06c 	ldr	fp, [sp, #108]	; 0x6c
    d05c:	e59d9070 	ldr	r9, [sp, #112]	; 0x70
    d060:	ea000001 	b	d06c <_nl_make_l10nflist+0x37c>
    d064:	e2588001 	subs	r8, r8, #1
    d068:	3a000017 	bcc	d0cc <_nl_make_l10nflist+0x3dc>
    d06c:	e1180006 	tst	r8, r6
    d070:	1afffffb 	bne	d064 <_nl_make_l10nflist+0x374>
    d074:	e59d2060 	ldr	r2, [sp, #96]	; 0x60
    d078:	e59d3064 	ldr	r3, [sp, #100]	; 0x64
    d07c:	e59d1068 	ldr	r1, [sp, #104]	; 0x68
    d080:	e58d2000 	str	r2, [sp]
    d084:	e58d3004 	str	r3, [sp, #4]
    d088:	e58d1008 	str	r1, [sp, #8]
    d08c:	e1a03008 	mov	r3, r8
    d090:	e3a0201b 	mov	r2, #27
    d094:	e58db00c 	str	fp, [sp, #12]
    d098:	e58d9010 	str	r9, [sp, #16]
    d09c:	e58d4014 	str	r4, [sp, #20]
    d0a0:	e58d5018 	str	r5, [sp, #24]
    d0a4:	e1a0000a 	mov	r0, sl
    d0a8:	e59f1110 	ldr	r1, [pc, #272]	; d1c0 <_nl_make_l10nflist+0x4d0>
    d0ac:	ebffff0f 	bl	ccf0 <_nl_make_l10nflist>
    d0b0:	e2872001 	add	r2, r7, #1
    d0b4:	e2873004 	add	r3, r7, #4
    d0b8:	e1a07002 	mov	r7, r2
    d0bc:	e59d202c 	ldr	r2, [sp, #44]	; 0x2c
    d0c0:	e2588001 	subs	r8, r8, #1
    d0c4:	e7820103 	str	r0, [r2, r3, lsl #2]
    d0c8:	2affffe7 	bcs	d06c <_nl_make_l10nflist+0x37c>
    d0cc:	e1a04007 	mov	r4, r7
    d0d0:	e59d102c 	ldr	r1, [sp, #44]	; 0x2c
    d0d4:	e3a03000 	mov	r3, #0
    d0d8:	e1a00001 	mov	r0, r1
    d0dc:	e2844004 	add	r4, r4, #4
    d0e0:	e7813104 	str	r3, [r1, r4, lsl #2]
    d0e4:	e28dd03c 	add	sp, sp, #60	; 0x3c
    d0e8:	e8bd8ff0 	pop	{r4, r5, r6, r7, r8, r9, sl, fp, pc}
    d0ec:	e2183001 	ands	r3, r8, #1
    d0f0:	e59d7024 	ldr	r7, [sp, #36]	; 0x24
    d0f4:	e58d302c 	str	r3, [sp, #44]	; 0x2c
    d0f8:	1affff15 	bne	cd54 <_nl_make_l10nflist+0x64>
    d0fc:	e2183008 	ands	r3, r8, #8
    d100:	e59d402c 	ldr	r4, [sp, #44]	; 0x2c
    d104:	e58d3034 	str	r3, [sp, #52]	; 0x34
    d108:	1affff17 	bne	cd6c <_nl_make_l10nflist+0x7c>
    d10c:	e59d3034 	ldr	r3, [sp, #52]	; 0x34
    d110:	eaffff18 	b	cd78 <_nl_make_l10nflist+0x88>
    d114:	e1a06001 	mov	r6, r1
    d118:	e1a00004 	mov	r0, r4
    d11c:	eb0038a2 	bl	1b3ac <__cfree>
    d120:	e1a00006 	mov	r0, r6
    d124:	e28dd03c 	add	sp, sp, #60	; 0x3c
    d128:	e8bd8ff0 	pop	{r4, r5, r6, r7, r8, r9, sl, fp, pc}
    d12c:	e3a03040 	mov	r3, #64	; 0x40
    d130:	e59d1070 	ldr	r1, [sp, #112]	; 0x70
    d134:	e5c03000 	strb	r3, [r0]
    d138:	e2800001 	add	r0, r0, #1
    d13c:	eb0044b4 	bl	1e414 <__stpcpy>
    d140:	eaffff34 	b	ce18 <_nl_make_l10nflist+0x128>
    d144:	e3a0302e 	mov	r3, #46	; 0x2e
    d148:	e59d106c 	ldr	r1, [sp, #108]	; 0x6c
    d14c:	e5c03000 	strb	r3, [r0]
    d150:	e2800001 	add	r0, r0, #1
    d154:	eb0044ae 	bl	1e414 <__stpcpy>
    d158:	eaffff2b 	b	ce0c <_nl_make_l10nflist+0x11c>
    d15c:	e3a0302e 	mov	r3, #46	; 0x2e
    d160:	e59d1068 	ldr	r1, [sp, #104]	; 0x68
    d164:	e5c03000 	strb	r3, [r0]
    d168:	e2800001 	add	r0, r0, #1
    d16c:	eb0044a8 	bl	1e414 <__stpcpy>
    d170:	eaffff22 	b	ce00 <_nl_make_l10nflist+0x110>
    d174:	e3a0305f 	mov	r3, #95	; 0x5f
    d178:	e59d1064 	ldr	r1, [sp, #100]	; 0x64
    d17c:	e5c03000 	strb	r3, [r0]
    d180:	e2800001 	add	r0, r0, #1
    d184:	eb0044a2 	bl	1e414 <__stpcpy>
    d188:	eaffff19 	b	cdf4 <_nl_make_l10nflist+0x104>
    d18c:	e3a04000 	mov	r4, #0
    d190:	eaffffaa 	b	d040 <_nl_make_l10nflist+0x350>
    d194:	e1a00004 	mov	r0, r4
    d198:	eaffffd1 	b	d0e4 <_nl_make_l10nflist+0x3f4>
    d19c:	e1a05006 	mov	r5, r6
    d1a0:	eaffff30 	b	ce68 <_nl_make_l10nflist+0x178>
    d1a4:	e1a00004 	mov	r0, r4
    d1a8:	eb00387f 	bl	1b3ac <__cfree>
    d1ac:	e59d002c 	ldr	r0, [sp, #44]	; 0x2c
    d1b0:	eaffffcb 	b	d0e4 <_nl_make_l10nflist+0x3f4>
    d1b4:	00005555 	.word	0x00005555
    d1b8:	00003333 	.word	0x00003333
    d1bc:	00000f0f 	.word	0x00000f0f
    d1c0:	00069e04 	.word	0x00069e04

0000d1c4 <_nl_normalize_codeset>:
    d1c4:	e92d40f0 	push	{r4, r5, r6, r7, lr}
    d1c8:	e3510000 	cmp	r1, #0
    d1cc:	e24dd00c 	sub	sp, sp, #12
    d1d0:	e1a06000 	mov	r6, r0
    d1d4:	0a000030 	beq	d29c <_nl_normalize_codeset+0xd8>
    d1d8:	e3a0e001 	mov	lr, #1
    d1dc:	e3a05000 	mov	r5, #0
    d1e0:	e59f70ec 	ldr	r7, [pc, #236]	; d2d4 <_nl_normalize_codeset+0x110>
    d1e4:	e1a03000 	mov	r3, r0
    d1e8:	e0814000 	add	r4, r1, r0
    d1ec:	e5970034 	ldr	r0, [r7, #52]	; 0x34
    d1f0:	e4d32001 	ldrb	r2, [r3], #1
    d1f4:	e1a0c082 	lsl	ip, r2, #1
    d1f8:	e190c0bc 	ldrh	ip, [r0, ip]
    d1fc:	e2422030 	sub	r2, r2, #48	; 0x30
    d200:	e31c0008 	tst	ip, #8
    d204:	0a000002 	beq	d214 <_nl_normalize_codeset+0x50>
    d208:	e3520009 	cmp	r2, #9
    d20c:	83a0e000 	movhi	lr, #0
    d210:	e2855001 	add	r5, r5, #1
    d214:	e1530004 	cmp	r3, r4
    d218:	1afffff4 	bne	d1f0 <_nl_normalize_codeset+0x2c>
    d21c:	e35e0000 	cmp	lr, #0
    d220:	12850004 	addne	r0, r5, #4
    d224:	1a00001d 	bne	d2a0 <_nl_normalize_codeset+0xdc>
    d228:	e2850001 	add	r0, r5, #1
    d22c:	eb00366f 	bl	1abf0 <__libc_malloc>
    d230:	e3500000 	cmp	r0, #0
    d234:	11a0c000 	movne	ip, r0
    d238:	0a000015 	beq	d294 <_nl_normalize_codeset+0xd0>
    d23c:	e1a02006 	mov	r2, r6
    d240:	e5975034 	ldr	r5, [r7, #52]	; 0x34
    d244:	e5976038 	ldr	r6, [r7, #56]	; 0x38
    d248:	ea000004 	b	d260 <_nl_normalize_codeset+0x9c>
    d24c:	e7963103 	ldr	r3, [r6, r3, lsl #2]
    d250:	e1520004 	cmp	r2, r4
    d254:	e5cc3000 	strb	r3, [ip]
    d258:	e28cc001 	add	ip, ip, #1
    d25c:	0a00000a 	beq	d28c <_nl_normalize_codeset+0xc8>
    d260:	e4d23001 	ldrb	r3, [r2], #1
    d264:	e1a01083 	lsl	r1, r3, #1
    d268:	e19510b1 	ldrh	r1, [r5, r1]
    d26c:	e243e030 	sub	lr, r3, #48	; 0x30
    d270:	e3110b01 	tst	r1, #1024	; 0x400
    d274:	1afffff4 	bne	d24c <_nl_normalize_codeset+0x88>
    d278:	e35e0009 	cmp	lr, #9
    d27c:	95cc3000 	strbls	r3, [ip]
    d280:	928cc001 	addls	ip, ip, #1
    d284:	e1520004 	cmp	r2, r4
    d288:	1afffff4 	bne	d260 <_nl_normalize_codeset+0x9c>
    d28c:	e3a03000 	mov	r3, #0
    d290:	e5cc3000 	strb	r3, [ip]
    d294:	e28dd00c 	add	sp, sp, #12
    d298:	e8bd80f0 	pop	{r4, r5, r6, r7, pc}
    d29c:	e3a00004 	mov	r0, #4
    d2a0:	e58d1004 	str	r1, [sp, #4]
    d2a4:	eb003651 	bl	1abf0 <__libc_malloc>
    d2a8:	e3500000 	cmp	r0, #0
    d2ac:	e59d1004 	ldr	r1, [sp, #4]
    d2b0:	0afffff7 	beq	d294 <_nl_normalize_codeset+0xd0>
    d2b4:	e1a0c000 	mov	ip, r0
    d2b8:	e59f3018 	ldr	r3, [pc, #24]	; d2d8 <_nl_normalize_codeset+0x114>
    d2bc:	e3510000 	cmp	r1, #0
    d2c0:	e48c3003 	str	r3, [ip], #3
    d2c4:	0afffff0 	beq	d28c <_nl_normalize_codeset+0xc8>
    d2c8:	e0814006 	add	r4, r1, r6
    d2cc:	e59f7000 	ldr	r7, [pc]	; d2d4 <_nl_normalize_codeset+0x110>
    d2d0:	eaffffd9 	b	d23c <_nl_normalize_codeset+0x78>
    d2d4:	00079604 	.word	0x00079604
    d2d8:	006f7369 	.word	0x006f7369

0000d2dc <_nl_explode_name>:
    d2dc:	e3a0c000 	mov	ip, #0
    d2e0:	e92d4ff8 	push	{r3, r4, r5, r6, r7, r8, r9, sl, fp, lr}
    d2e4:	e59d7028 	ldr	r7, [sp, #40]	; 0x28
    d2e8:	e582c000 	str	ip, [r2]
    d2ec:	e1a09003 	mov	r9, r3
    d2f0:	e583c000 	str	ip, [r3]
    d2f4:	e59d302c 	ldr	r3, [sp, #44]	; 0x2c
    d2f8:	e587c000 	str	ip, [r7]
    d2fc:	e583c000 	str	ip, [r3]
    d300:	e5810000 	str	r0, [r1]
    d304:	e5d01000 	ldrb	r1, [r0]
    d308:	e1a08002 	mov	r8, r2
    d30c:	e31100bf 	tst	r1, #191	; 0xbf
    d310:	13a03001 	movne	r3, #1
    d314:	01a0300c 	moveq	r3, ip
    d318:	e351005f 	cmp	r1, #95	; 0x5f
    d31c:	03a03000 	moveq	r3, #0
    d320:	12033001 	andne	r3, r3, #1
    d324:	e153000c 	cmp	r3, ip
    d328:	0a000068 	beq	d4d0 <_nl_explode_name+0x1f4>
    d32c:	e351002e 	cmp	r1, #46	; 0x2e
    d330:	0a000066 	beq	d4d0 <_nl_explode_name+0x1f4>
    d334:	e1a04000 	mov	r4, r0
    d338:	ea000003 	b	d34c <_nl_explode_name+0x70>
    d33c:	e3510040 	cmp	r1, #64	; 0x40
    d340:	0a000023 	beq	d3d4 <_nl_explode_name+0xf8>
    d344:	e351002e 	cmp	r1, #46	; 0x2e
    d348:	0a00003d 	beq	d444 <_nl_explode_name+0x168>
    d34c:	e5f41001 	ldrb	r1, [r4, #1]!
    d350:	e351005f 	cmp	r1, #95	; 0x5f
    d354:	13510000 	cmpne	r1, #0
    d358:	13a0c001 	movne	ip, #1
    d35c:	03a0c000 	moveq	ip, #0
    d360:	1afffff5 	bne	d33c <_nl_explode_name+0x60>
    d364:	e1500004 	cmp	r0, r4
    d368:	e1a03004 	mov	r3, r4
    d36c:	0a000057 	beq	d4d0 <_nl_explode_name+0x1f4>
    d370:	e3510040 	cmp	r1, #64	; 0x40
    d374:	0a000021 	beq	d400 <_nl_explode_name+0x124>
    d378:	e351005f 	cmp	r1, #95	; 0x5f
    d37c:	11a0600c 	movne	r6, ip
    d380:	0a000020 	beq	d408 <_nl_explode_name+0x12c>
    d384:	e351002e 	cmp	r1, #46	; 0x2e
    d388:	0a000030 	beq	d450 <_nl_explode_name+0x174>
    d38c:	e3510040 	cmp	r1, #64	; 0x40
    d390:	0a000012 	beq	d3e0 <_nl_explode_name+0x104>
    d394:	e5993000 	ldr	r3, [r9]
    d398:	e3530000 	cmp	r3, #0
    d39c:	0a000002 	beq	d3ac <_nl_explode_name+0xd0>
    d3a0:	e5d33000 	ldrb	r3, [r3]
    d3a4:	e3530000 	cmp	r3, #0
    d3a8:	03c66004 	biceq	r6, r6, #4
    d3ac:	e5973000 	ldr	r3, [r7]
    d3b0:	e3530000 	cmp	r3, #0
    d3b4:	0a000004 	beq	d3cc <_nl_explode_name+0xf0>
    d3b8:	e5d33000 	ldrb	r3, [r3]
    d3bc:	e3530000 	cmp	r3, #0
    d3c0:	1a000001 	bne	d3cc <_nl_explode_name+0xf0>
    d3c4:	e3c60002 	bic	r0, r6, #2
    d3c8:	e8bd8ff8 	pop	{r3, r4, r5, r6, r7, r8, r9, sl, fp, pc}
    d3cc:	e1a00006 	mov	r0, r6
    d3d0:	e8bd8ff8 	pop	{r3, r4, r5, r6, r7, r8, r9, sl, fp, pc}
    d3d4:	e1500004 	cmp	r0, r4
    d3d8:	0a00003c 	beq	d4d0 <_nl_explode_name+0x1f4>
    d3dc:	e3a06000 	mov	r6, #0
    d3e0:	e1a03004 	mov	r3, r4
    d3e4:	e3a02000 	mov	r2, #0
    d3e8:	e4c32001 	strb	r2, [r3], #1
    d3ec:	e5883000 	str	r3, [r8]
    d3f0:	e5d43001 	ldrb	r3, [r4, #1]
    d3f4:	e1530002 	cmp	r3, r2
    d3f8:	13866008 	orrne	r6, r6, #8
    d3fc:	eaffffe4 	b	d394 <_nl_explode_name+0xb8>
    d400:	e1a0600c 	mov	r6, ip
    d404:	eafffff5 	b	d3e0 <_nl_explode_name+0x104>
    d408:	e4c4c001 	strb	ip, [r4], #1
    d40c:	e5894000 	str	r4, [r9]
    d410:	e5d31001 	ldrb	r1, [r3, #1]
    d414:	e3510000 	cmp	r1, #0
    d418:	1351002e 	cmpne	r1, #46	; 0x2e
    d41c:	1a000004 	bne	d434 <_nl_explode_name+0x158>
    d420:	ea000030 	b	d4e8 <_nl_explode_name+0x20c>
    d424:	e5f41001 	ldrb	r1, [r4, #1]!
    d428:	e351002e 	cmp	r1, #46	; 0x2e
    d42c:	13510000 	cmpne	r1, #0
    d430:	0a00002c 	beq	d4e8 <_nl_explode_name+0x20c>
    d434:	e3510040 	cmp	r1, #64	; 0x40
    d438:	1afffff9 	bne	d424 <_nl_explode_name+0x148>
    d43c:	e3a06004 	mov	r6, #4
    d440:	eaffffe6 	b	d3e0 <_nl_explode_name+0x104>
    d444:	e1500004 	cmp	r0, r4
    d448:	0a000020 	beq	d4d0 <_nl_explode_name+0x1f4>
    d44c:	e3a06000 	mov	r6, #0
    d450:	e1a00004 	mov	r0, r4
    d454:	e3a03000 	mov	r3, #0
    d458:	e4c03001 	strb	r3, [r0], #1
    d45c:	e5870000 	str	r0, [r7]
    d460:	e5d41001 	ldrb	r1, [r4, #1]
    d464:	e31100bf 	tst	r1, #191	; 0xbf
    d468:	0a000020 	beq	d4f0 <_nl_explode_name+0x214>
    d46c:	e1a05000 	mov	r5, r0
    d470:	ea000000 	b	d478 <_nl_explode_name+0x19c>
    d474:	e1a05004 	mov	r5, r4
    d478:	e5d51001 	ldrb	r1, [r5, #1]
    d47c:	e2854001 	add	r4, r5, #1
    d480:	e31100bf 	tst	r1, #191	; 0xbf
    d484:	1afffffa 	bne	d474 <_nl_explode_name+0x198>
    d488:	e1500004 	cmp	r0, r4
    d48c:	e386a002 	orr	sl, r6, #2
    d490:	0a00001e 	beq	d510 <_nl_explode_name+0x234>
    d494:	e0601004 	rsb	r1, r0, r4
    d498:	ebffff49 	bl	d1c4 <_nl_normalize_codeset>
    d49c:	e59d302c 	ldr	r3, [sp, #44]	; 0x2c
    d4a0:	e3500000 	cmp	r0, #0
    d4a4:	e1a0b000 	mov	fp, r0
    d4a8:	e5830000 	str	r0, [r3]
    d4ac:	0a000019 	beq	d518 <_nl_explode_name+0x23c>
    d4b0:	e5970000 	ldr	r0, [r7]
    d4b4:	e1a0100b 	mov	r1, fp
    d4b8:	eb003ed8 	bl	1d020 <strcmp>
    d4bc:	e3500000 	cmp	r0, #0
    d4c0:	0a00000d 	beq	d4fc <_nl_explode_name+0x220>
    d4c4:	e3866003 	orr	r6, r6, #3
    d4c8:	e5d51001 	ldrb	r1, [r5, #1]
    d4cc:	eaffffae 	b	d38c <_nl_explode_name+0xb0>
    d4d0:	e3a01000 	mov	r1, #0
    d4d4:	eb004495 	bl	1e730 <__rawmemchr>
    d4d8:	e3a06000 	mov	r6, #0
    d4dc:	e1a04000 	mov	r4, r0
    d4e0:	e5d01000 	ldrb	r1, [r0]
    d4e4:	eaffffa8 	b	d38c <_nl_explode_name+0xb0>
    d4e8:	e3a06004 	mov	r6, #4
    d4ec:	eaffffa4 	b	d384 <_nl_explode_name+0xa8>
    d4f0:	e3866002 	orr	r6, r6, #2
    d4f4:	e1a04000 	mov	r4, r0
    d4f8:	eaffffa3 	b	d38c <_nl_explode_name+0xb0>
    d4fc:	e1a0000b 	mov	r0, fp
    d500:	eb0037a9 	bl	1b3ac <__cfree>
    d504:	e1a0600a 	mov	r6, sl
    d508:	e5d51001 	ldrb	r1, [r5, #1]
    d50c:	eaffff9e 	b	d38c <_nl_explode_name+0xb0>
    d510:	e1a0600a 	mov	r6, sl
    d514:	eaffff9c 	b	d38c <_nl_explode_name+0xb0>
    d518:	e3e00000 	mvn	r0, #0
    d51c:	e8bd8ff8 	pop	{r3, r4, r5, r6, r7, r8, r9, sl, fp, pc}

0000d520 <__gettext_free_exp>:
    d520:	e92d4010 	push	{r4, lr}
    d524:	e2504000 	subs	r4, r0, #0
    d528:	08bd8010 	popeq	{r4, pc}
    d52c:	e5943000 	ldr	r3, [r4]
    d530:	e3530002 	cmp	r3, #2
    d534:	0a000008 	beq	d55c <__gettext_free_exp+0x3c>
    d538:	e3530003 	cmp	r3, #3
    d53c:	0a000004 	beq	d554 <__gettext_free_exp+0x34>
    d540:	e3530001 	cmp	r3, #1
    d544:	0a000006 	beq	d564 <__gettext_free_exp+0x44>
    d548:	e1a00004 	mov	r0, r4
    d54c:	e8bd4010 	pop	{r4, lr}
    d550:	ea003795 	b	1b3ac <__cfree>
    d554:	e5940010 	ldr	r0, [r4, #16]
    d558:	ebfffff0 	bl	d520 <__gettext_free_exp>
    d55c:	e594000c 	ldr	r0, [r4, #12]
    d560:	ebffffee 	bl	d520 <__gettext_free_exp>
    d564:	e5940008 	ldr	r0, [r4, #8]
    d568:	ebffffec 	bl	d520 <__gettext_free_exp>
    d56c:	e1a00004 	mov	r0, r4
    d570:	e8bd4010 	pop	{r4, lr}
    d574:	ea00378c 	b	1b3ac <__cfree>

0000d578 <new_exp>:
    d578:	e92d4070 	push	{r4, r5, r6, lr}
    d57c:	e2504001 	subs	r4, r0, #1
    d580:	e24dd008 	sub	sp, sp, #8
    d584:	e1a06000 	mov	r6, r0
    d588:	4a00002c 	bmi	d640 <new_exp+0xc8>
    d58c:	e7920104 	ldr	r0, [r2, r4, lsl #2]
    d590:	e1a0c104 	lsl	ip, r4, #2
    d594:	e3500000 	cmp	r0, #0
    d598:	0a00001e 	beq	d618 <new_exp+0xa0>
    d59c:	e082c00c 	add	ip, r2, ip
    d5a0:	e1a03004 	mov	r3, r4
    d5a4:	ea000002 	b	d5b4 <new_exp+0x3c>
    d5a8:	e53ce004 	ldr	lr, [ip, #-4]!
    d5ac:	e35e0000 	cmp	lr, #0
    d5b0:	0a000018 	beq	d618 <new_exp+0xa0>
    d5b4:	e2533001 	subs	r3, r3, #1
    d5b8:	2afffffa 	bcs	d5a8 <new_exp+0x30>
    d5bc:	e3a00014 	mov	r0, #20
    d5c0:	e58d1004 	str	r1, [sp, #4]
    d5c4:	e58d2000 	str	r2, [sp]
    d5c8:	eb003588 	bl	1abf0 <__libc_malloc>
    d5cc:	e3500000 	cmp	r0, #0
    d5d0:	e59d1004 	ldr	r1, [sp, #4]
    d5d4:	e59d2000 	ldr	r2, [sp]
    d5d8:	0a00000d 	beq	d614 <new_exp+0x9c>
    d5dc:	e3540000 	cmp	r4, #0
    d5e0:	e5806000 	str	r6, [r0]
    d5e4:	e5801004 	str	r1, [r0, #4]
    d5e8:	ba000012 	blt	d638 <new_exp+0xc0>
    d5ec:	e2863002 	add	r3, r6, #2
    d5f0:	e0822106 	add	r2, r2, r6, lsl #2
    d5f4:	e0803103 	add	r3, r0, r3, lsl #2
    d5f8:	e2444001 	sub	r4, r4, #1
    d5fc:	e5321004 	ldr	r1, [r2, #-4]!
    d600:	e3740001 	cmn	r4, #1
    d604:	e5231004 	str	r1, [r3, #-4]!
    d608:	1afffffa 	bne	d5f8 <new_exp+0x80>
    d60c:	e28dd008 	add	sp, sp, #8
    d610:	e8bd8070 	pop	{r4, r5, r6, pc}
    d614:	e7920104 	ldr	r0, [r2, r4, lsl #2]
    d618:	e2465107 	sub	r5, r6, #-1073741823	; 0xc0000001
    d61c:	e0825105 	add	r5, r2, r5, lsl #2
    d620:	ea000000 	b	d628 <new_exp+0xb0>
    d624:	e5350004 	ldr	r0, [r5, #-4]!
    d628:	ebffffbc 	bl	d520 <__gettext_free_exp>
    d62c:	e2544001 	subs	r4, r4, #1
    d630:	5afffffb 	bpl	d624 <new_exp+0xac>
    d634:	e3a00000 	mov	r0, #0
    d638:	e28dd008 	add	sp, sp, #8
    d63c:	e8bd8070 	pop	{r4, r5, r6, pc}
    d640:	e3a00014 	mov	r0, #20
    d644:	e58d1004 	str	r1, [sp, #4]
    d648:	e58d2000 	str	r2, [sp]
    d64c:	eb003567 	bl	1abf0 <__libc_malloc>
    d650:	e3500000 	cmp	r0, #0
    d654:	e59d1004 	ldr	r1, [sp, #4]
    d658:	e59d2000 	ldr	r2, [sp]
    d65c:	1affffde 	bne	d5dc <new_exp+0x64>
    d660:	eafffff3 	b	d634 <new_exp+0xbc>

0000d664 <__gettextparse>:
    d664:	e3a03000 	mov	r3, #0
    d668:	e92d4ff0 	push	{r4, r5, r6, r7, r8, r9, sl, fp, lr}
    d66c:	e24dde4e 	sub	sp, sp, #1248	; 0x4e0
    d670:	e24dd004 	sub	sp, sp, #4
    d674:	e58d3010 	str	r3, [sp, #16]
    d678:	e28d3030 	add	r3, sp, #48	; 0x30
    d67c:	e58d300c 	str	r3, [sp, #12]
    d680:	e1a0b003 	mov	fp, r3
    d684:	e1a05003 	mov	r5, r3
    d688:	e3a06000 	mov	r6, #0
    d68c:	e3a070c8 	mov	r7, #200	; 0xc8
    d690:	e3e03001 	mvn	r3, #1
    d694:	e28dad07 	add	sl, sp, #448	; 0x1c0
    d698:	e59f47f8 	ldr	r4, [pc, #2040]	; de98 <__gettextparse+0x834>
    d69c:	e58d0018 	str	r0, [sp, #24]
    d6a0:	e58da014 	str	sl, [sp, #20]
    d6a4:	e2472106 	sub	r2, r7, #-2147483647	; 0x80000001
    d6a8:	e1a02082 	lsl	r2, r2, #1
    d6ac:	e0851002 	add	r1, r5, r2
    d6b0:	e15b0001 	cmp	fp, r1
    d6b4:	e1cb60b0 	strh	r6, [fp]
    d6b8:	3a000031 	bcc	d784 <__gettextparse+0x120>
    d6bc:	e59fe7d8 	ldr	lr, [pc, #2008]	; de9c <__gettextparse+0x838>
    d6c0:	e065a00b 	rsb	sl, r5, fp
    d6c4:	e1a0a0ca 	asr	sl, sl, #1
    d6c8:	e157000e 	cmp	r7, lr
    d6cc:	e28aa001 	add	sl, sl, #1
    d6d0:	8a0001df 	bhi	de54 <__gettextparse+0x7f0>
    d6d4:	e59f17c4 	ldr	r1, [pc, #1988]	; dea0 <__gettextparse+0x83c>
    d6d8:	e2822002 	add	r2, r2, #2
    d6dc:	e1520001 	cmp	r2, r1
    d6e0:	e1a07001 	mov	r7, r1
    d6e4:	31a07002 	movcc	r7, r2
    d6e8:	e1a09087 	lsl	r9, r7, #1
    d6ec:	e0890007 	add	r0, r9, r7
    d6f0:	e1a00080 	lsl	r0, r0, #1
    d6f4:	e2800003 	add	r0, r0, #3
    d6f8:	e58d3004 	str	r3, [sp, #4]
    d6fc:	eb00353b 	bl	1abf0 <__libc_malloc>
    d700:	e2508000 	subs	r8, r0, #0
    d704:	0a0001d2 	beq	de54 <__gettextparse+0x7f0>
    d708:	e1a0b08a 	lsl	fp, sl, #1
    d70c:	e1a0200b 	mov	r2, fp
    d710:	e1a01005 	mov	r1, r5
    d714:	eb00435d 	bl	1e490 <memcpy>
    d718:	e289c003 	add	ip, r9, #3
    d71c:	e3ccc003 	bic	ip, ip, #3
    d720:	e088c00c 	add	ip, r8, ip
    d724:	e1a0a10a 	lsl	sl, sl, #2
    d728:	e1a0000c 	mov	r0, ip
    d72c:	e1a0200a 	mov	r2, sl
    d730:	e59d1014 	ldr	r1, [sp, #20]
    d734:	eb004355 	bl	1e490 <memcpy>
    d738:	e59d200c 	ldr	r2, [sp, #12]
    d73c:	e1a0c000 	mov	ip, r0
    d740:	e1550002 	cmp	r5, r2
    d744:	e59d3004 	ldr	r3, [sp, #4]
    d748:	0a000003 	beq	d75c <__gettextparse+0xf8>
    d74c:	e1a00005 	mov	r0, r5
    d750:	e58dc008 	str	ip, [sp, #8]
    d754:	eb003714 	bl	1b3ac <__cfree>
    d758:	e99d1008 	ldmib	sp, {r3, ip}
    d75c:	e24bb002 	sub	fp, fp, #2
    d760:	e2499002 	sub	r9, r9, #2
    d764:	e088b00b 	add	fp, r8, fp
    d768:	e0889009 	add	r9, r8, r9
    d76c:	e24aa004 	sub	sl, sl, #4
    d770:	e15b0009 	cmp	fp, r9
    d774:	e08ca00a 	add	sl, ip, sl
    d778:	2a0001be 	bcs	de78 <__gettextparse+0x814>
    d77c:	e1a05008 	mov	r5, r8
    d780:	e58dc014 	str	ip, [sp, #20]
    d784:	e3560009 	cmp	r6, #9
    d788:	0a0001b3 	beq	de5c <__gettextparse+0x7f8>
    d78c:	e7d40006 	ldrb	r0, [r4, r6]
    d790:	e1a01c00 	lsl	r1, r0, #24
    d794:	e1a01c41 	asr	r1, r1, #24
    d798:	e371000a 	cmn	r1, #10
    d79c:	0a000010 	beq	d7e4 <__gettextparse+0x180>
    d7a0:	e3730002 	cmn	r3, #2
    d7a4:	0a00008c 	beq	d9dc <__gettextparse+0x378>
    d7a8:	e3530000 	cmp	r3, #0
    d7ac:	da00007b 	ble	d9a0 <__gettextparse+0x33c>
    d7b0:	e59fe6ec 	ldr	lr, [pc, #1772]	; dea4 <__gettextparse+0x840>
    d7b4:	e153000e 	cmp	r3, lr
    d7b8:	83a02002 	movhi	r2, #2
    d7bc:	90842003 	addls	r2, r4, r3
    d7c0:	95d2201c 	ldrbls	r2, [r2, #28]
    d7c4:	e0811002 	add	r1, r1, r2
    d7c8:	e3510036 	cmp	r1, #54	; 0x36
    d7cc:	8a000004 	bhi	d7e4 <__gettextparse+0x180>
    d7d0:	e0841001 	add	r1, r4, r1
    d7d4:	e281cf49 	add	ip, r1, #292	; 0x124
    d7d8:	e1dcc0d0 	ldrsb	ip, [ip]
    d7dc:	e15c0002 	cmp	ip, r2
    d7e0:	0a000071 	beq	d9ac <__gettextparse+0x348>
    d7e4:	e0846006 	add	r6, r4, r6
    d7e8:	e5d68194 	ldrb	r8, [r6, #404]	; 0x194
    d7ec:	e3580000 	cmp	r8, #0
    d7f0:	0a000013 	beq	d844 <__gettextparse+0x1e0>
    d7f4:	e0842008 	add	r2, r4, r8
    d7f8:	e5d261b0 	ldrb	r6, [r2, #432]	; 0x1b0
    d7fc:	e2482002 	sub	r2, r8, #2
    d800:	e2661001 	rsb	r1, r6, #1
    d804:	e79a0101 	ldr	r0, [sl, r1, lsl #2]
    d808:	e352000b 	cmp	r2, #11
    d80c:	979ff102 	ldrls	pc, [pc, r2, lsl #2]
    d810:	ea000193 	b	de64 <__gettextparse+0x800>
    d814:	0000dc14 	.word	0x0000dc14
    d818:	0000dc3c 	.word	0x0000dc3c
    d81c:	0000dc64 	.word	0x0000dc64
    d820:	0000dc78 	.word	0x0000dc78
    d824:	0000d900 	.word	0x0000d900
    d828:	0000d900 	.word	0x0000d900
    d82c:	0000d900 	.word	0x0000d900
    d830:	0000d900 	.word	0x0000d900
    d834:	0000dce0 	.word	0x0000dce0
    d838:	0000dcf8 	.word	0x0000dcf8
    d83c:	0000dca4 	.word	0x0000dca4
    d840:	0000dc8c 	.word	0x0000dc8c
    d844:	e59d1010 	ldr	r1, [sp, #16]
    d848:	e3510003 	cmp	r1, #3
    d84c:	0a00001d 	beq	d8c8 <__gettextparse+0x264>
    d850:	e1a0200b 	mov	r2, fp
    d854:	e1a01000 	mov	r1, r0
    d858:	ea000005 	b	d874 <__gettextparse+0x210>
    d85c:	e1550002 	cmp	r5, r2
    d860:	0a00001c 	beq	d8d8 <__gettextparse+0x274>
    d864:	e15b10f2 	ldrsh	r1, [fp, #-2]
    d868:	e24aa004 	sub	sl, sl, #4
    d86c:	e7d41001 	ldrb	r1, [r4, r1]
    d870:	e2422002 	sub	r2, r2, #2
    d874:	e1a01c01 	lsl	r1, r1, #24
    d878:	e1a01c41 	asr	r1, r1, #24
    d87c:	e371000a 	cmn	r1, #10
    d880:	e2810001 	add	r0, r1, #1
    d884:	e1a0b002 	mov	fp, r2
    d888:	0afffff3 	beq	d85c <__gettextparse+0x1f8>
    d88c:	e3500036 	cmp	r0, #54	; 0x36
    d890:	e0841000 	add	r1, r4, r0
    d894:	8afffff0 	bhi	d85c <__gettextparse+0x1f8>
    d898:	e5d10124 	ldrb	r0, [r1, #292]	; 0x124
    d89c:	e3500001 	cmp	r0, #1
    d8a0:	1affffed 	bne	d85c <__gettextparse+0x1f8>
    d8a4:	e5d1615c 	ldrb	r6, [r1, #348]	; 0x15c
    d8a8:	e3560000 	cmp	r6, #0
    d8ac:	0affffea 	beq	d85c <__gettextparse+0x1f8>
    d8b0:	e3a01003 	mov	r1, #3
    d8b4:	e59de01c 	ldr	lr, [sp, #28]
    d8b8:	e28aa004 	add	sl, sl, #4
    d8bc:	e58ae000 	str	lr, [sl]
    d8c0:	e58d1010 	str	r1, [sp, #16]
    d8c4:	ea000031 	b	d990 <__gettextparse+0x32c>
    d8c8:	e3530000 	cmp	r3, #0
    d8cc:	c3e03001 	mvngt	r3, #1
    d8d0:	caffffde 	bgt	d850 <__gettextparse+0x1ec>
    d8d4:	1affffdd 	bne	d850 <__gettextparse+0x1ec>
    d8d8:	e3a04001 	mov	r4, #1
    d8dc:	e59d300c 	ldr	r3, [sp, #12]
    d8e0:	e1550003 	cmp	r5, r3
    d8e4:	0a000001 	beq	d8f0 <__gettextparse+0x28c>
    d8e8:	e1a00005 	mov	r0, r5
    d8ec:	eb0036ae 	bl	1b3ac <__cfree>
    d8f0:	e1a00004 	mov	r0, r4
    d8f4:	e28dde4e 	add	sp, sp, #1248	; 0x4e0
    d8f8:	e28dd004 	add	sp, sp, #4
    d8fc:	e8bd8ff0 	pop	{r4, r5, r6, r7, r8, r9, sl, fp, pc}
    d900:	e3a00002 	mov	r0, #2
    d904:	e51a1004 	ldr	r1, [sl, #-4]
    d908:	e51a2008 	ldr	r2, [sl, #-8]
    d90c:	e59ac000 	ldr	ip, [sl]
    d910:	e58d2024 	str	r2, [sp, #36]	; 0x24
    d914:	e58dc028 	str	ip, [sp, #40]	; 0x28
    d918:	e28d2024 	add	r2, sp, #36	; 0x24
    d91c:	e58d3004 	str	r3, [sp, #4]
    d920:	ebffff14 	bl	d578 <new_exp>
    d924:	e1a0e106 	lsl	lr, r6, #2
    d928:	e59d3004 	ldr	r3, [sp, #4]
    d92c:	e1a06086 	lsl	r6, r6, #1
    d930:	e26ee000 	rsb	lr, lr, #0
    d934:	e2666000 	rsb	r6, r6, #0
    d938:	e0848008 	add	r8, r4, r8
    d93c:	e5d821c0 	ldrb	r2, [r8, #448]	; 0x1c0
    d940:	e1bb10f6 	ldrsh	r1, [fp, r6]!
    d944:	e2422010 	sub	r2, r2, #16
    d948:	e084c002 	add	ip, r4, r2
    d94c:	e28cce1d 	add	ip, ip, #464	; 0x1d0
    d950:	e1dcc0d0 	ldrsb	ip, [ip]
    d954:	e08aa00e 	add	sl, sl, lr
    d958:	e08cc001 	add	ip, ip, r1
    d95c:	e35c0036 	cmp	ip, #54	; 0x36
    d960:	e58a0004 	str	r0, [sl, #4]
    d964:	e28aa004 	add	sl, sl, #4
    d968:	8a000005 	bhi	d984 <__gettextparse+0x320>
    d96c:	e084c00c 	add	ip, r4, ip
    d970:	e28c0f49 	add	r0, ip, #292	; 0x124
    d974:	e1d000d0 	ldrsb	r0, [r0]
    d978:	e1500001 	cmp	r0, r1
    d97c:	05dc615c 	ldrbeq	r6, [ip, #348]	; 0x15c
    d980:	0a000002 	beq	d990 <__gettextparse+0x32c>
    d984:	e0842002 	add	r2, r4, r2
    d988:	e2822f75 	add	r2, r2, #468	; 0x1d4
    d98c:	e1d260d0 	ldrsb	r6, [r2]
    d990:	e28bb002 	add	fp, fp, #2
    d994:	eaffff42 	b	d6a4 <__gettextparse+0x40>
    d998:	e59d3018 	ldr	r3, [sp, #24]
    d99c:	e583c000 	str	ip, [r3]
    d9a0:	e3a03000 	mov	r3, #0
    d9a4:	e1a02003 	mov	r2, r3
    d9a8:	eaffff85 	b	d7c4 <__gettextparse+0x160>
    d9ac:	e5d1615c 	ldrb	r6, [r1, #348]	; 0x15c
    d9b0:	e3560000 	cmp	r6, #0
    d9b4:	0a0000d3 	beq	dd08 <__gettextparse+0x6a4>
    d9b8:	e59d3010 	ldr	r3, [sp, #16]
    d9bc:	e28aa004 	add	sl, sl, #4
    d9c0:	e3530000 	cmp	r3, #0
    d9c4:	12433001 	subne	r3, r3, #1
    d9c8:	158d3010 	strne	r3, [sp, #16]
    d9cc:	e59d301c 	ldr	r3, [sp, #28]
    d9d0:	e58a3000 	str	r3, [sl]
    d9d4:	e3e03001 	mvn	r3, #1
    d9d8:	eaffffec 	b	d990 <__gettextparse+0x32c>
    d9dc:	e59d3018 	ldr	r3, [sp, #24]
    d9e0:	e593c000 	ldr	ip, [r3]
    d9e4:	e5dc2000 	ldrb	r2, [ip]
    d9e8:	e3520000 	cmp	r2, #0
    d9ec:	1a000003 	bne	da00 <__gettextparse+0x39c>
    d9f0:	eaffffe8 	b	d998 <__gettextparse+0x334>
    d9f4:	e5fc2001 	ldrb	r2, [ip, #1]!
    d9f8:	e3520000 	cmp	r2, #0
    d9fc:	0affffe5 	beq	d998 <__gettextparse+0x334>
    da00:	e3520009 	cmp	r2, #9
    da04:	13520020 	cmpne	r2, #32
    da08:	0afffff9 	beq	d9f4 <__gettextparse+0x390>
    da0c:	e28ce001 	add	lr, ip, #1
    da10:	e1a03002 	mov	r3, r2
    da14:	e352007c 	cmp	r2, #124	; 0x7c
    da18:	979ff102 	ldrls	pc, [pc, r2, lsl #2]
    da1c:	ea0000c0 	b	dd24 <__gettextparse+0x6c0>
    da20:	0000de2c 	.word	0x0000de2c
    da24:	0000dd24 	.word	0x0000dd24
    da28:	0000dd24 	.word	0x0000dd24
    da2c:	0000dd24 	.word	0x0000dd24
    da30:	0000dd24 	.word	0x0000dd24
    da34:	0000dd24 	.word	0x0000dd24
    da38:	0000dd24 	.word	0x0000dd24
    da3c:	0000dd24 	.word	0x0000dd24
    da40:	0000dd24 	.word	0x0000dd24
    da44:	0000dd24 	.word	0x0000dd24
    da48:	0000de2c 	.word	0x0000de2c
    da4c:	0000dd24 	.word	0x0000dd24
    da50:	0000dd24 	.word	0x0000dd24
    da54:	0000dd24 	.word	0x0000dd24
    da58:	0000dd24 	.word	0x0000dd24
    da5c:	0000dd24 	.word	0x0000dd24
    da60:	0000dd24 	.word	0x0000dd24
    da64:	0000dd24 	.word	0x0000dd24
    da68:	0000dd24 	.word	0x0000dd24
    da6c:	0000dd24 	.word	0x0000dd24
    da70:	0000dd24 	.word	0x0000dd24
    da74:	0000dd24 	.word	0x0000dd24
    da78:	0000dd24 	.word	0x0000dd24
    da7c:	0000dd24 	.word	0x0000dd24
    da80:	0000dd24 	.word	0x0000dd24
    da84:	0000dd24 	.word	0x0000dd24
    da88:	0000dd24 	.word	0x0000dd24
    da8c:	0000dd24 	.word	0x0000dd24
    da90:	0000dd24 	.word	0x0000dd24
    da94:	0000dd24 	.word	0x0000dd24
    da98:	0000dd24 	.word	0x0000dd24
    da9c:	0000dd24 	.word	0x0000dd24
    daa0:	0000dd24 	.word	0x0000dd24
    daa4:	0000de38 	.word	0x0000de38
    daa8:	0000dd24 	.word	0x0000dd24
    daac:	0000dd24 	.word	0x0000dd24
    dab0:	0000dd24 	.word	0x0000dd24
    dab4:	0000de1c 	.word	0x0000de1c
    dab8:	0000de08 	.word	0x0000de08
    dabc:	0000dd24 	.word	0x0000dd24
    dac0:	0000dd28 	.word	0x0000dd28
    dac4:	0000dd28 	.word	0x0000dd28
    dac8:	0000ddf8 	.word	0x0000ddf8
    dacc:	0000dde8 	.word	0x0000dde8
    dad0:	0000dd24 	.word	0x0000dd24
    dad4:	0000ddd8 	.word	0x0000ddd8
    dad8:	0000dd24 	.word	0x0000dd24
    dadc:	0000ddc8 	.word	0x0000ddc8
    dae0:	0000dd84 	.word	0x0000dd84
    dae4:	0000dd84 	.word	0x0000dd84
    dae8:	0000dd84 	.word	0x0000dd84
    daec:	0000dd84 	.word	0x0000dd84
    daf0:	0000dd84 	.word	0x0000dd84
    daf4:	0000dd84 	.word	0x0000dd84
    daf8:	0000dd84 	.word	0x0000dd84
    dafc:	0000dd84 	.word	0x0000dd84
    db00:	0000dd84 	.word	0x0000dd84
    db04:	0000dd84 	.word	0x0000dd84
    db08:	0000dd28 	.word	0x0000dd28
    db0c:	0000de2c 	.word	0x0000de2c
    db10:	0000dd5c 	.word	0x0000dd5c
    db14:	0000dd18 	.word	0x0000dd18
    db18:	0000dd34 	.word	0x0000dd34
    db1c:	0000dd28 	.word	0x0000dd28
    db20:	0000dd24 	.word	0x0000dd24
    db24:	0000dd24 	.word	0x0000dd24
    db28:	0000dd24 	.word	0x0000dd24
    db2c:	0000dd24 	.word	0x0000dd24
    db30:	0000dd24 	.word	0x0000dd24
    db34:	0000dd24 	.word	0x0000dd24
    db38:	0000dd24 	.word	0x0000dd24
    db3c:	0000dd24 	.word	0x0000dd24
    db40:	0000dd24 	.word	0x0000dd24
    db44:	0000dd24 	.word	0x0000dd24
    db48:	0000dd24 	.word	0x0000dd24
    db4c:	0000dd24 	.word	0x0000dd24
    db50:	0000dd24 	.word	0x0000dd24
    db54:	0000dd24 	.word	0x0000dd24
    db58:	0000dd24 	.word	0x0000dd24
    db5c:	0000dd24 	.word	0x0000dd24
    db60:	0000dd24 	.word	0x0000dd24
    db64:	0000dd24 	.word	0x0000dd24
    db68:	0000dd24 	.word	0x0000dd24
    db6c:	0000dd24 	.word	0x0000dd24
    db70:	0000dd24 	.word	0x0000dd24
    db74:	0000dd24 	.word	0x0000dd24
    db78:	0000dd24 	.word	0x0000dd24
    db7c:	0000dd24 	.word	0x0000dd24
    db80:	0000dd24 	.word	0x0000dd24
    db84:	0000dd24 	.word	0x0000dd24
    db88:	0000dd24 	.word	0x0000dd24
    db8c:	0000dd24 	.word	0x0000dd24
    db90:	0000dd24 	.word	0x0000dd24
    db94:	0000dd24 	.word	0x0000dd24
    db98:	0000dd24 	.word	0x0000dd24
    db9c:	0000dd24 	.word	0x0000dd24
    dba0:	0000dd24 	.word	0x0000dd24
    dba4:	0000dd24 	.word	0x0000dd24
    dba8:	0000dd24 	.word	0x0000dd24
    dbac:	0000dd24 	.word	0x0000dd24
    dbb0:	0000dd24 	.word	0x0000dd24
    dbb4:	0000dd24 	.word	0x0000dd24
    dbb8:	0000dd24 	.word	0x0000dd24
    dbbc:	0000dd24 	.word	0x0000dd24
    dbc0:	0000dd24 	.word	0x0000dd24
    dbc4:	0000dd24 	.word	0x0000dd24
    dbc8:	0000dd24 	.word	0x0000dd24
    dbcc:	0000dd24 	.word	0x0000dd24
    dbd0:	0000dd24 	.word	0x0000dd24
    dbd4:	0000dd24 	.word	0x0000dd24
    dbd8:	0000dd28 	.word	0x0000dd28
    dbdc:	0000dd24 	.word	0x0000dd24
    dbe0:	0000dd24 	.word	0x0000dd24
    dbe4:	0000dd24 	.word	0x0000dd24
    dbe8:	0000dd24 	.word	0x0000dd24
    dbec:	0000dd24 	.word	0x0000dd24
    dbf0:	0000dd24 	.word	0x0000dd24
    dbf4:	0000dd24 	.word	0x0000dd24
    dbf8:	0000dd24 	.word	0x0000dd24
    dbfc:	0000dd24 	.word	0x0000dd24
    dc00:	0000dd24 	.word	0x0000dd24
    dc04:	0000dd24 	.word	0x0000dd24
    dc08:	0000dd24 	.word	0x0000dd24
    dc0c:	0000dd24 	.word	0x0000dd24
    dc10:	0000de08 	.word	0x0000de08
    dc14:	e59a2000 	ldr	r2, [sl]
    dc18:	e3520000 	cmp	r2, #0
    dc1c:	0affff2d 	beq	d8d8 <__gettextparse+0x274>
    dc20:	e59d1018 	ldr	r1, [sp, #24]
    dc24:	e1a0e106 	lsl	lr, r6, #2
    dc28:	e1a06086 	lsl	r6, r6, #1
    dc2c:	e5812004 	str	r2, [r1, #4]
    dc30:	e26ee000 	rsb	lr, lr, #0
    dc34:	e2666000 	rsb	r6, r6, #0
    dc38:	eaffff3e 	b	d938 <__gettextparse+0x2d4>
    dc3c:	e51a1010 	ldr	r1, [sl, #-16]
    dc40:	e51a2008 	ldr	r2, [sl, #-8]
    dc44:	e59ac000 	ldr	ip, [sl]
    dc48:	e3a00003 	mov	r0, #3
    dc4c:	e58d1024 	str	r1, [sp, #36]	; 0x24
    dc50:	e58d2028 	str	r2, [sp, #40]	; 0x28
    dc54:	e3a01010 	mov	r1, #16
    dc58:	e28d2024 	add	r2, sp, #36	; 0x24
    dc5c:	e58dc02c 	str	ip, [sp, #44]	; 0x2c
    dc60:	eaffff2d 	b	d91c <__gettextparse+0x2b8>
    dc64:	e51a2008 	ldr	r2, [sl, #-8]
    dc68:	e59ac000 	ldr	ip, [sl]
    dc6c:	e3a00002 	mov	r0, #2
    dc70:	e3a0100f 	mov	r1, #15
    dc74:	eaffff25 	b	d910 <__gettextparse+0x2ac>
    dc78:	e51a2008 	ldr	r2, [sl, #-8]
    dc7c:	e59ac000 	ldr	ip, [sl]
    dc80:	e3a00002 	mov	r0, #2
    dc84:	e3a0100e 	mov	r1, #14
    dc88:	eaffff20 	b	d910 <__gettextparse+0x2ac>
    dc8c:	e1a0e106 	lsl	lr, r6, #2
    dc90:	e1a06086 	lsl	r6, r6, #1
    dc94:	e51a0004 	ldr	r0, [sl, #-4]
    dc98:	e26ee000 	rsb	lr, lr, #0
    dc9c:	e2666000 	rsb	r6, r6, #0
    dca0:	eaffff24 	b	d938 <__gettextparse+0x2d4>
    dca4:	e3a00000 	mov	r0, #0
    dca8:	e3a01001 	mov	r1, #1
    dcac:	e1a02000 	mov	r2, r0
    dcb0:	e58d3004 	str	r3, [sp, #4]
    dcb4:	ebfffe2f 	bl	d578 <new_exp>
    dcb8:	e3500000 	cmp	r0, #0
    dcbc:	e59d3004 	ldr	r3, [sp, #4]
    dcc0:	0a000067 	beq	de64 <__gettextparse+0x800>
    dcc4:	e59a2000 	ldr	r2, [sl]
    dcc8:	e1a0e106 	lsl	lr, r6, #2
    dccc:	e1a06086 	lsl	r6, r6, #1
    dcd0:	e5802008 	str	r2, [r0, #8]
    dcd4:	e26ee000 	rsb	lr, lr, #0
    dcd8:	e2666000 	rsb	r6, r6, #0
    dcdc:	eaffff15 	b	d938 <__gettextparse+0x2d4>
    dce0:	e59ac000 	ldr	ip, [sl]
    dce4:	e3a00001 	mov	r0, #1
    dce8:	e3a01002 	mov	r1, #2
    dcec:	e28d2024 	add	r2, sp, #36	; 0x24
    dcf0:	e58dc024 	str	ip, [sp, #36]	; 0x24
    dcf4:	eaffff08 	b	d91c <__gettextparse+0x2b8>
    dcf8:	e3a00000 	mov	r0, #0
    dcfc:	e1a01000 	mov	r1, r0
    dd00:	e1a02000 	mov	r2, r0
    dd04:	eaffff04 	b	d91c <__gettextparse+0x2b8>
    dd08:	e59a0004 	ldr	r0, [sl, #4]
    dd0c:	e1a0e006 	mov	lr, r6
    dd10:	e1a08006 	mov	r8, r6
    dd14:	eaffff07 	b	d938 <__gettextparse+0x2d4>
    dd18:	e5dc3001 	ldrb	r3, [ip, #1]
    dd1c:	e353003d 	cmp	r3, #61	; 0x3d
    dd20:	0a000057 	beq	de84 <__gettextparse+0x820>
    dd24:	e3a03c01 	mov	r3, #256	; 0x100
    dd28:	e59d2018 	ldr	r2, [sp, #24]
    dd2c:	e582e000 	str	lr, [r2]
    dd30:	eafffe9c 	b	d7a8 <__gettextparse+0x144>
    dd34:	e5dc3001 	ldrb	r3, [ip, #1]
    dd38:	e353003d 	cmp	r3, #61	; 0x3d
    dd3c:	13a03009 	movne	r3, #9
    dd40:	158d301c 	strne	r3, [sp, #28]
    dd44:	128330fa 	addne	r3, r3, #250	; 0xfa
    dd48:	03a0300b 	moveq	r3, #11
    dd4c:	028ce002 	addeq	lr, ip, #2
    dd50:	058d301c 	streq	r3, [sp, #28]
    dd54:	028330f8 	addeq	r3, r3, #248	; 0xf8
    dd58:	eafffff2 	b	dd28 <__gettextparse+0x6c4>
    dd5c:	e5dc3001 	ldrb	r3, [ip, #1]
    dd60:	e353003d 	cmp	r3, #61	; 0x3d
    dd64:	13a03008 	movne	r3, #8
    dd68:	158d301c 	strne	r3, [sp, #28]
    dd6c:	128330fb 	addne	r3, r3, #251	; 0xfb
    dd70:	03a0300a 	moveq	r3, #10
    dd74:	028ce002 	addeq	lr, ip, #2
    dd78:	058d301c 	streq	r3, [sp, #28]
    dd7c:	028330f9 	addeq	r3, r3, #249	; 0xf9
    dd80:	eaffffe8 	b	dd28 <__gettextparse+0x6c4>
    dd84:	e5dc3001 	ldrb	r3, [ip, #1]
    dd88:	e2422030 	sub	r2, r2, #48	; 0x30
    dd8c:	e58d201c 	str	r2, [sp, #28]
    dd90:	e2432030 	sub	r2, r3, #48	; 0x30
    dd94:	e3520009 	cmp	r2, #9
    dd98:	8a000008 	bhi	ddc0 <__gettextparse+0x75c>
    dd9c:	e59d201c 	ldr	r2, [sp, #28]
    dda0:	e0822102 	add	r2, r2, r2, lsl #2
    dda4:	e0832082 	add	r2, r3, r2, lsl #1
    dda8:	e5fe3001 	ldrb	r3, [lr, #1]!
    ddac:	e2422030 	sub	r2, r2, #48	; 0x30
    ddb0:	e243c030 	sub	ip, r3, #48	; 0x30
    ddb4:	e35c0009 	cmp	ip, #9
    ddb8:	9afffff8 	bls	dda0 <__gettextparse+0x73c>
    ddbc:	e58d201c 	str	r2, [sp, #28]
    ddc0:	e59f30dc 	ldr	r3, [pc, #220]	; dea4 <__gettextparse+0x840>
    ddc4:	eaffffd7 	b	dd28 <__gettextparse+0x6c4>
    ddc8:	e3a03004 	mov	r3, #4
    ddcc:	e58d301c 	str	r3, [sp, #28]
    ddd0:	e59f30d0 	ldr	r3, [pc, #208]	; dea8 <__gettextparse+0x844>
    ddd4:	eaffffd3 	b	dd28 <__gettextparse+0x6c4>
    ddd8:	e3a03007 	mov	r3, #7
    dddc:	e58d301c 	str	r3, [sp, #28]
    dde0:	e3a03f41 	mov	r3, #260	; 0x104
    dde4:	eaffffcf 	b	dd28 <__gettextparse+0x6c4>
    dde8:	e3a03006 	mov	r3, #6
    ddec:	e58d301c 	str	r3, [sp, #28]
    ddf0:	e3a03f41 	mov	r3, #260	; 0x104
    ddf4:	eaffffcb 	b	dd28 <__gettextparse+0x6c4>
    ddf8:	e3a03003 	mov	r3, #3
    ddfc:	e58d301c 	str	r3, [sp, #28]
    de00:	e59f30a0 	ldr	r3, [pc, #160]	; dea8 <__gettextparse+0x844>
    de04:	eaffffc7 	b	dd28 <__gettextparse+0x6c4>
    de08:	e5dc8001 	ldrb	r8, [ip, #1]
    de0c:	e1520008 	cmp	r2, r8
    de10:	028ce002 	addeq	lr, ip, #2
    de14:	1affffc2 	bne	dd24 <__gettextparse+0x6c0>
    de18:	eaffffc2 	b	dd28 <__gettextparse+0x6c4>
    de1c:	e3a03005 	mov	r3, #5
    de20:	e58d301c 	str	r3, [sp, #28]
    de24:	e2833c01 	add	r3, r3, #256	; 0x100
    de28:	eaffffbe 	b	dd28 <__gettextparse+0x6c4>
    de2c:	e1a0e00c 	mov	lr, ip
    de30:	e3a03000 	mov	r3, #0
    de34:	eaffffbb 	b	dd28 <__gettextparse+0x6c4>
    de38:	e5dc2001 	ldrb	r2, [ip, #1]
    de3c:	e352003d 	cmp	r2, #61	; 0x3d
    de40:	03a0300d 	moveq	r3, #13
    de44:	028ce002 	addeq	lr, ip, #2
    de48:	058d301c 	streq	r3, [sp, #28]
    de4c:	028330f5 	addeq	r3, r3, #245	; 0xf5
    de50:	eaffffb4 	b	dd28 <__gettextparse+0x6c4>
    de54:	e3a04002 	mov	r4, #2
    de58:	eafffe9f 	b	d8dc <__gettextparse+0x278>
    de5c:	e3a04000 	mov	r4, #0
    de60:	eafffe9d 	b	d8dc <__gettextparse+0x278>
    de64:	e1a0e106 	lsl	lr, r6, #2
    de68:	e1a06086 	lsl	r6, r6, #1
    de6c:	e26ee000 	rsb	lr, lr, #0
    de70:	e2666000 	rsb	r6, r6, #0
    de74:	eafffeaf 	b	d938 <__gettextparse+0x2d4>
    de78:	e1a05008 	mov	r5, r8
    de7c:	e3a04001 	mov	r4, #1
    de80:	eafffe95 	b	d8dc <__gettextparse+0x278>
    de84:	e3a0300c 	mov	r3, #12
    de88:	e28ce002 	add	lr, ip, #2
    de8c:	e58d301c 	str	r3, [sp, #28]
    de90:	e28330f6 	add	r3, r3, #246	; 0xf6
    de94:	eaffffa3 	b	dd28 <__gettextparse+0x6c4>
    de98:	00069e20 	.word	0x00069e20
    de9c:	0000270f 	.word	0x0000270f
    dea0:	00002710 	.word	0x00002710
    dea4:	00000106 	.word	0x00000106
    dea8:	00000105 	.word	0x00000105

0000deac <__gettext_extract_plural>:
    deac:	e92d40f0 	push	{r4, r5, r6, r7, lr}
    deb0:	e2504000 	subs	r4, r0, #0
    deb4:	e24dd014 	sub	sp, sp, #20
    deb8:	e1a06001 	mov	r6, r1
    debc:	e1a05002 	mov	r5, r2
    dec0:	0a00001c 	beq	df38 <__gettext_extract_plural+0x8c>
    dec4:	e59f10d8 	ldr	r1, [pc, #216]	; dfa4 <__gettext_extract_plural+0xf8>
    dec8:	eb003e06 	bl	1d6e8 <strstr>
    decc:	e59f10d4 	ldr	r1, [pc, #212]	; dfa8 <__gettext_extract_plural+0xfc>
    ded0:	e1a07000 	mov	r7, r0
    ded4:	e1a00004 	mov	r0, r4
    ded8:	eb003e02 	bl	1d6e8 <strstr>
    dedc:	e3570000 	cmp	r7, #0
    dee0:	13500000 	cmpne	r0, #0
    dee4:	0a000013 	beq	df38 <__gettext_extract_plural+0x8c>
    dee8:	e5d03009 	ldrb	r3, [r0, #9]
    deec:	e2804009 	add	r4, r0, #9
    def0:	e3530000 	cmp	r3, #0
    def4:	0a00000f 	beq	df38 <__gettext_extract_plural+0x8c>
    def8:	e59f20ac 	ldr	r2, [pc, #172]	; dfac <__gettext_extract_plural+0x100>
    defc:	ebffedb7 	bl	95e0 <__aeabi_read_tp>
